
bootloader:     file format elf64-x86-64


Disassembly of section .text:

0000000000101520 <start>:
  101520:	bc 00 50 11 00       	mov    $0x115000,%esp
  101525:	89 df                	mov    %ebx,%edi
  101527:	e8 c9 00 00 00       	callq  1015f5 <check_multiboot>
  10152c:	e8 d0 00 00 00       	callq  101601 <check_cpuid>
  101531:	e8 e3 00 00 00       	callq  101619 <check_long_mode>
  101536:	e8 22 00 00 00       	callq  10155d <set_up_page_tables>
  10153b:	e8 66 00 00 00       	callq  1015a6 <enable_paging>
  101540:	e8 f6 00 00 00       	callq  10163b <set_up_SSE>
  101545:	0f 01 15 20 90 10 00 	lgdt   0x109020(%rip)        # 20a56c <idtp+0xf34cc>
  10154c:	66 b8 10 00          	mov    $0x10,%ax
  101550:	8e d0                	mov    %eax,%ss
  101552:	8e d8                	mov    %eax,%ds
  101554:	8e c0                	mov    %eax,%es
  101556:	ea                   	(bad)  
  101557:	70 60                	jo     1015b9 <enable_paging+0x13>
  101559:	10 00                	adc    %al,(%rax)
  10155b:	08 00                	or     %al,(%rax)

000000000010155d <set_up_page_tables>:
  10155d:	b8 00 a0 10 00       	mov    $0x10a000,%eax
  101562:	83 c8 03             	or     $0x3,%eax
  101565:	a3 f8 af 10 00 b8 00 	movabs %eax,0x10b000b80010aff8
  10156c:	b0 10 
  10156e:	00 83 c8 03 a3 00    	add    %al,0xa303c8(%rbx)
  101574:	a0 10 00 b8 00 c0 10 	movabs 0x830010c000b80010,%al
  10157b:	00 83 
  10157d:	c8 03 a3 00          	enterq $0xa303,$0x0
  101581:	b0 10                	mov    $0x10,%al
  101583:	00 b9 00 00 00 00    	add    %bh,0x0(%rcx)

0000000000101589 <set_up_page_tables.map_p2_table>:
  101589:	b8 00 00 20 00       	mov    $0x200000,%eax
  10158e:	f7 e1                	mul    %ecx
  101590:	0d 83 00 00 00       	or     $0x83,%eax
  101595:	89 04 cd 00 c0 10 00 	mov    %eax,0x10c000(,%rcx,8)
  10159c:	41 81 f9 00 02 00 00 	cmp    $0x200,%r9d
  1015a3:	75 e4                	jne    101589 <set_up_page_tables.map_p2_table>
  1015a5:	c3                   	retq   

00000000001015a6 <enable_paging>:
  1015a6:	b8 00 a0 10 00       	mov    $0x10a000,%eax
  1015ab:	0f 22 d8             	mov    %rax,%cr3
  1015ae:	0f 20 e0             	mov    %cr4,%rax
  1015b1:	83 c8 20             	or     $0x20,%eax
  1015b4:	0f 22 e0             	mov    %rax,%cr4
  1015b7:	b9 80 00 00 c0       	mov    $0xc0000080,%ecx
  1015bc:	0f 32                	rdmsr  
  1015be:	0d 00 01 00 00       	or     $0x100,%eax
  1015c3:	0f 30                	wrmsr  
  1015c5:	0f 20 c0             	mov    %cr0,%rax
  1015c8:	0d 00 00 00 80       	or     $0x80000000,%eax
  1015cd:	0f 22 c0             	mov    %rax,%cr0
  1015d0:	c3                   	retq   

00000000001015d1 <error>:
  1015d1:	c7 05 00 80 0b 00 45 	movl   $0x4f524f45,0xb8000(%rip)        # 1b95db <idtp+0xa253b>
  1015d8:	4f 52 4f 
  1015db:	c7 05 04 80 0b 00 52 	movl   $0x4f3a4f52,0xb8004(%rip)        # 1b95e9 <idtp+0xa2549>
  1015e2:	4f 3a 4f 
  1015e5:	c7 05 08 80 0b 00 20 	movl   $0x4f204f20,0xb8008(%rip)        # 1b95f7 <idtp+0xa2557>
  1015ec:	4f 20 4f 
  1015ef:	a2 0a 80 0b 00 f4 3d 	movabs %al,0x62893df4000b800a
  1015f6:	89 62 

00000000001015f5 <check_multiboot>:
  1015f5:	3d 89 62 d7 36       	cmp    $0x36d76289,%eax
  1015fa:	75 01                	jne    1015fd <check_multiboot.no_multiboot>
  1015fc:	c3                   	retq   

00000000001015fd <check_multiboot.no_multiboot>:
  1015fd:	b0 30                	mov    $0x30,%al
  1015ff:	eb d0                	jmp    1015d1 <error>

0000000000101601 <check_cpuid>:
  101601:	9c                   	pushfq 
  101602:	58                   	pop    %rax
  101603:	89 c1                	mov    %eax,%ecx
  101605:	35 00 00 20 00       	xor    $0x200000,%eax
  10160a:	50                   	push   %rax
  10160b:	9d                   	popfq  
  10160c:	9c                   	pushfq 
  10160d:	58                   	pop    %rax
  10160e:	51                   	push   %rcx
  10160f:	9d                   	popfq  
  101610:	39 c8                	cmp    %ecx,%eax
  101612:	74 01                	je     101615 <check_cpuid.no_cpuid>
  101614:	c3                   	retq   

0000000000101615 <check_cpuid.no_cpuid>:
  101615:	b0 31                	mov    $0x31,%al
  101617:	eb b8                	jmp    1015d1 <error>

0000000000101619 <check_long_mode>:
  101619:	b8 00 00 00 80       	mov    $0x80000000,%eax
  10161e:	0f a2                	cpuid  
  101620:	3d 01 00 00 80       	cmp    $0x80000001,%eax
  101625:	72 10                	jb     101637 <check_long_mode.no_long_mode>
  101627:	b8 01 00 00 80       	mov    $0x80000001,%eax
  10162c:	0f a2                	cpuid  
  10162e:	f7 c2 00 00 00 20    	test   $0x20000000,%edx
  101634:	74 01                	je     101637 <check_long_mode.no_long_mode>
  101636:	c3                   	retq   

0000000000101637 <check_long_mode.no_long_mode>:
  101637:	b0 32                	mov    $0x32,%al
  101639:	eb 96                	jmp    1015d1 <error>

000000000010163b <set_up_SSE>:
  10163b:	b8 01 00 00 00       	mov    $0x1,%eax
  101640:	0f a2                	cpuid  
  101642:	f7 c2 00 00 00 02    	test   $0x2000000,%edx
  101648:	74 19                	je     101663 <set_up_SSE.no_SSE>
  10164a:	0f 20 c0             	mov    %cr0,%rax
  10164d:	66 83 e0 fb          	and    $0xfffb,%ax
  101651:	66 83 c8 02          	or     $0x2,%ax
  101655:	0f 22 c0             	mov    %rax,%cr0
  101658:	0f 20 e0             	mov    %cr4,%rax
  10165b:	66 0d 00 06          	or     $0x600,%ax
  10165f:	0f 22 e0             	mov    %rax,%cr4
  101662:	c3                   	retq   

0000000000101663 <set_up_SSE.no_SSE>:
  101663:	b0 61                	mov    $0x61,%al
  101665:	e9 67 ff ff ff       	jmpq   1015d1 <error>
  10166a:	66 0f 1f 44 00 00    	nopw   0x0(%rax,%rax,1)

0000000000101670 <intr_handler_0>:
  101670:	55                   	push   %rbp
  101671:	48 89 e5             	mov    %rsp,%rbp
  101674:	50                   	push   %rax
  101675:	53                   	push   %rbx
  101676:	51                   	push   %rcx
  101677:	52                   	push   %rdx
  101678:	57                   	push   %rdi
  101679:	56                   	push   %rsi
  10167a:	54                   	push   %rsp
  10167b:	55                   	push   %rbp
  10167c:	41 50                	push   %r8
  10167e:	41 51                	push   %r9
  101680:	41 52                	push   %r10
  101682:	41 53                	push   %r11
  101684:	41 54                	push   %r12
  101686:	41 55                	push   %r13
  101688:	41 56                	push   %r14
  10168a:	41 57                	push   %r15
  10168c:	9c                   	pushfq 
  10168d:	bf 00 00 00 00       	mov    $0x0,%edi
  101692:	e8 c1 76 00 00       	callq  108d58 <intr_handler>
  101697:	9d                   	popfq  
  101698:	41 5f                	pop    %r15
  10169a:	41 5e                	pop    %r14
  10169c:	41 5d                	pop    %r13
  10169e:	41 5c                	pop    %r12
  1016a0:	41 5b                	pop    %r11
  1016a2:	41 5a                	pop    %r10
  1016a4:	41 59                	pop    %r9
  1016a6:	41 58                	pop    %r8
  1016a8:	5d                   	pop    %rbp
  1016a9:	48 83 c4 08          	add    $0x8,%rsp
  1016ad:	5e                   	pop    %rsi
  1016ae:	5f                   	pop    %rdi
  1016af:	5a                   	pop    %rdx
  1016b0:	59                   	pop    %rcx
  1016b1:	5b                   	pop    %rbx
  1016b2:	58                   	pop    %rax
  1016b3:	48 89 6c 24 38       	mov    %rbp,0x38(%rsp)
  1016b8:	48 cf                	iretq  

00000000001016ba <intr_handler_1>:
  1016ba:	55                   	push   %rbp
  1016bb:	48 89 e5             	mov    %rsp,%rbp
  1016be:	50                   	push   %rax
  1016bf:	53                   	push   %rbx
  1016c0:	51                   	push   %rcx
  1016c1:	52                   	push   %rdx
  1016c2:	57                   	push   %rdi
  1016c3:	56                   	push   %rsi
  1016c4:	54                   	push   %rsp
  1016c5:	55                   	push   %rbp
  1016c6:	41 50                	push   %r8
  1016c8:	41 51                	push   %r9
  1016ca:	41 52                	push   %r10
  1016cc:	41 53                	push   %r11
  1016ce:	41 54                	push   %r12
  1016d0:	41 55                	push   %r13
  1016d2:	41 56                	push   %r14
  1016d4:	41 57                	push   %r15
  1016d6:	9c                   	pushfq 
  1016d7:	bf 01 00 00 00       	mov    $0x1,%edi
  1016dc:	e8 77 76 00 00       	callq  108d58 <intr_handler>
  1016e1:	9d                   	popfq  
  1016e2:	41 5f                	pop    %r15
  1016e4:	41 5e                	pop    %r14
  1016e6:	41 5d                	pop    %r13
  1016e8:	41 5c                	pop    %r12
  1016ea:	41 5b                	pop    %r11
  1016ec:	41 5a                	pop    %r10
  1016ee:	41 59                	pop    %r9
  1016f0:	41 58                	pop    %r8
  1016f2:	5d                   	pop    %rbp
  1016f3:	48 83 c4 08          	add    $0x8,%rsp
  1016f7:	5e                   	pop    %rsi
  1016f8:	5f                   	pop    %rdi
  1016f9:	5a                   	pop    %rdx
  1016fa:	59                   	pop    %rcx
  1016fb:	5b                   	pop    %rbx
  1016fc:	58                   	pop    %rax
  1016fd:	48 89 6c 24 38       	mov    %rbp,0x38(%rsp)
  101702:	48 cf                	iretq  

0000000000101704 <intr_handler_2>:
  101704:	55                   	push   %rbp
  101705:	48 89 e5             	mov    %rsp,%rbp
  101708:	50                   	push   %rax
  101709:	53                   	push   %rbx
  10170a:	51                   	push   %rcx
  10170b:	52                   	push   %rdx
  10170c:	57                   	push   %rdi
  10170d:	56                   	push   %rsi
  10170e:	54                   	push   %rsp
  10170f:	55                   	push   %rbp
  101710:	41 50                	push   %r8
  101712:	41 51                	push   %r9
  101714:	41 52                	push   %r10
  101716:	41 53                	push   %r11
  101718:	41 54                	push   %r12
  10171a:	41 55                	push   %r13
  10171c:	41 56                	push   %r14
  10171e:	41 57                	push   %r15
  101720:	9c                   	pushfq 
  101721:	bf 02 00 00 00       	mov    $0x2,%edi
  101726:	e8 2d 76 00 00       	callq  108d58 <intr_handler>
  10172b:	9d                   	popfq  
  10172c:	41 5f                	pop    %r15
  10172e:	41 5e                	pop    %r14
  101730:	41 5d                	pop    %r13
  101732:	41 5c                	pop    %r12
  101734:	41 5b                	pop    %r11
  101736:	41 5a                	pop    %r10
  101738:	41 59                	pop    %r9
  10173a:	41 58                	pop    %r8
  10173c:	5d                   	pop    %rbp
  10173d:	48 83 c4 08          	add    $0x8,%rsp
  101741:	5e                   	pop    %rsi
  101742:	5f                   	pop    %rdi
  101743:	5a                   	pop    %rdx
  101744:	59                   	pop    %rcx
  101745:	5b                   	pop    %rbx
  101746:	58                   	pop    %rax
  101747:	48 89 6c 24 38       	mov    %rbp,0x38(%rsp)
  10174c:	48 cf                	iretq  

000000000010174e <intr_handler_3>:
  10174e:	55                   	push   %rbp
  10174f:	48 89 e5             	mov    %rsp,%rbp
  101752:	50                   	push   %rax
  101753:	53                   	push   %rbx
  101754:	51                   	push   %rcx
  101755:	52                   	push   %rdx
  101756:	57                   	push   %rdi
  101757:	56                   	push   %rsi
  101758:	54                   	push   %rsp
  101759:	55                   	push   %rbp
  10175a:	41 50                	push   %r8
  10175c:	41 51                	push   %r9
  10175e:	41 52                	push   %r10
  101760:	41 53                	push   %r11
  101762:	41 54                	push   %r12
  101764:	41 55                	push   %r13
  101766:	41 56                	push   %r14
  101768:	41 57                	push   %r15
  10176a:	9c                   	pushfq 
  10176b:	bf 03 00 00 00       	mov    $0x3,%edi
  101770:	e8 e3 75 00 00       	callq  108d58 <intr_handler>
  101775:	9d                   	popfq  
  101776:	41 5f                	pop    %r15
  101778:	41 5e                	pop    %r14
  10177a:	41 5d                	pop    %r13
  10177c:	41 5c                	pop    %r12
  10177e:	41 5b                	pop    %r11
  101780:	41 5a                	pop    %r10
  101782:	41 59                	pop    %r9
  101784:	41 58                	pop    %r8
  101786:	5d                   	pop    %rbp
  101787:	48 83 c4 08          	add    $0x8,%rsp
  10178b:	5e                   	pop    %rsi
  10178c:	5f                   	pop    %rdi
  10178d:	5a                   	pop    %rdx
  10178e:	59                   	pop    %rcx
  10178f:	5b                   	pop    %rbx
  101790:	58                   	pop    %rax
  101791:	48 89 6c 24 38       	mov    %rbp,0x38(%rsp)
  101796:	48 cf                	iretq  

0000000000101798 <intr_handler_4>:
  101798:	55                   	push   %rbp
  101799:	48 89 e5             	mov    %rsp,%rbp
  10179c:	50                   	push   %rax
  10179d:	53                   	push   %rbx
  10179e:	51                   	push   %rcx
  10179f:	52                   	push   %rdx
  1017a0:	57                   	push   %rdi
  1017a1:	56                   	push   %rsi
  1017a2:	54                   	push   %rsp
  1017a3:	55                   	push   %rbp
  1017a4:	41 50                	push   %r8
  1017a6:	41 51                	push   %r9
  1017a8:	41 52                	push   %r10
  1017aa:	41 53                	push   %r11
  1017ac:	41 54                	push   %r12
  1017ae:	41 55                	push   %r13
  1017b0:	41 56                	push   %r14
  1017b2:	41 57                	push   %r15
  1017b4:	9c                   	pushfq 
  1017b5:	bf 04 00 00 00       	mov    $0x4,%edi
  1017ba:	e8 99 75 00 00       	callq  108d58 <intr_handler>
  1017bf:	9d                   	popfq  
  1017c0:	41 5f                	pop    %r15
  1017c2:	41 5e                	pop    %r14
  1017c4:	41 5d                	pop    %r13
  1017c6:	41 5c                	pop    %r12
  1017c8:	41 5b                	pop    %r11
  1017ca:	41 5a                	pop    %r10
  1017cc:	41 59                	pop    %r9
  1017ce:	41 58                	pop    %r8
  1017d0:	5d                   	pop    %rbp
  1017d1:	48 83 c4 08          	add    $0x8,%rsp
  1017d5:	5e                   	pop    %rsi
  1017d6:	5f                   	pop    %rdi
  1017d7:	5a                   	pop    %rdx
  1017d8:	59                   	pop    %rcx
  1017d9:	5b                   	pop    %rbx
  1017da:	58                   	pop    %rax
  1017db:	48 89 6c 24 38       	mov    %rbp,0x38(%rsp)
  1017e0:	48 cf                	iretq  

00000000001017e2 <intr_handler_5>:
  1017e2:	55                   	push   %rbp
  1017e3:	48 89 e5             	mov    %rsp,%rbp
  1017e6:	50                   	push   %rax
  1017e7:	53                   	push   %rbx
  1017e8:	51                   	push   %rcx
  1017e9:	52                   	push   %rdx
  1017ea:	57                   	push   %rdi
  1017eb:	56                   	push   %rsi
  1017ec:	54                   	push   %rsp
  1017ed:	55                   	push   %rbp
  1017ee:	41 50                	push   %r8
  1017f0:	41 51                	push   %r9
  1017f2:	41 52                	push   %r10
  1017f4:	41 53                	push   %r11
  1017f6:	41 54                	push   %r12
  1017f8:	41 55                	push   %r13
  1017fa:	41 56                	push   %r14
  1017fc:	41 57                	push   %r15
  1017fe:	9c                   	pushfq 
  1017ff:	bf 05 00 00 00       	mov    $0x5,%edi
  101804:	e8 4f 75 00 00       	callq  108d58 <intr_handler>
  101809:	9d                   	popfq  
  10180a:	41 5f                	pop    %r15
  10180c:	41 5e                	pop    %r14
  10180e:	41 5d                	pop    %r13
  101810:	41 5c                	pop    %r12
  101812:	41 5b                	pop    %r11
  101814:	41 5a                	pop    %r10
  101816:	41 59                	pop    %r9
  101818:	41 58                	pop    %r8
  10181a:	5d                   	pop    %rbp
  10181b:	48 83 c4 08          	add    $0x8,%rsp
  10181f:	5e                   	pop    %rsi
  101820:	5f                   	pop    %rdi
  101821:	5a                   	pop    %rdx
  101822:	59                   	pop    %rcx
  101823:	5b                   	pop    %rbx
  101824:	58                   	pop    %rax
  101825:	48 89 6c 24 38       	mov    %rbp,0x38(%rsp)
  10182a:	48 cf                	iretq  

000000000010182c <intr_handler_6>:
  10182c:	55                   	push   %rbp
  10182d:	48 89 e5             	mov    %rsp,%rbp
  101830:	50                   	push   %rax
  101831:	53                   	push   %rbx
  101832:	51                   	push   %rcx
  101833:	52                   	push   %rdx
  101834:	57                   	push   %rdi
  101835:	56                   	push   %rsi
  101836:	54                   	push   %rsp
  101837:	55                   	push   %rbp
  101838:	41 50                	push   %r8
  10183a:	41 51                	push   %r9
  10183c:	41 52                	push   %r10
  10183e:	41 53                	push   %r11
  101840:	41 54                	push   %r12
  101842:	41 55                	push   %r13
  101844:	41 56                	push   %r14
  101846:	41 57                	push   %r15
  101848:	9c                   	pushfq 
  101849:	bf 06 00 00 00       	mov    $0x6,%edi
  10184e:	e8 05 75 00 00       	callq  108d58 <intr_handler>
  101853:	9d                   	popfq  
  101854:	41 5f                	pop    %r15
  101856:	41 5e                	pop    %r14
  101858:	41 5d                	pop    %r13
  10185a:	41 5c                	pop    %r12
  10185c:	41 5b                	pop    %r11
  10185e:	41 5a                	pop    %r10
  101860:	41 59                	pop    %r9
  101862:	41 58                	pop    %r8
  101864:	5d                   	pop    %rbp
  101865:	48 83 c4 08          	add    $0x8,%rsp
  101869:	5e                   	pop    %rsi
  10186a:	5f                   	pop    %rdi
  10186b:	5a                   	pop    %rdx
  10186c:	59                   	pop    %rcx
  10186d:	5b                   	pop    %rbx
  10186e:	58                   	pop    %rax
  10186f:	48 89 6c 24 38       	mov    %rbp,0x38(%rsp)
  101874:	48 cf                	iretq  

0000000000101876 <intr_handler_7>:
  101876:	55                   	push   %rbp
  101877:	48 89 e5             	mov    %rsp,%rbp
  10187a:	50                   	push   %rax
  10187b:	53                   	push   %rbx
  10187c:	51                   	push   %rcx
  10187d:	52                   	push   %rdx
  10187e:	57                   	push   %rdi
  10187f:	56                   	push   %rsi
  101880:	54                   	push   %rsp
  101881:	55                   	push   %rbp
  101882:	41 50                	push   %r8
  101884:	41 51                	push   %r9
  101886:	41 52                	push   %r10
  101888:	41 53                	push   %r11
  10188a:	41 54                	push   %r12
  10188c:	41 55                	push   %r13
  10188e:	41 56                	push   %r14
  101890:	41 57                	push   %r15
  101892:	9c                   	pushfq 
  101893:	bf 07 00 00 00       	mov    $0x7,%edi
  101898:	e8 bb 74 00 00       	callq  108d58 <intr_handler>
  10189d:	9d                   	popfq  
  10189e:	41 5f                	pop    %r15
  1018a0:	41 5e                	pop    %r14
  1018a2:	41 5d                	pop    %r13
  1018a4:	41 5c                	pop    %r12
  1018a6:	41 5b                	pop    %r11
  1018a8:	41 5a                	pop    %r10
  1018aa:	41 59                	pop    %r9
  1018ac:	41 58                	pop    %r8
  1018ae:	5d                   	pop    %rbp
  1018af:	48 83 c4 08          	add    $0x8,%rsp
  1018b3:	5e                   	pop    %rsi
  1018b4:	5f                   	pop    %rdi
  1018b5:	5a                   	pop    %rdx
  1018b6:	59                   	pop    %rcx
  1018b7:	5b                   	pop    %rbx
  1018b8:	58                   	pop    %rax
  1018b9:	48 89 6c 24 38       	mov    %rbp,0x38(%rsp)
  1018be:	48 cf                	iretq  

00000000001018c0 <intr_handler_8>:
  1018c0:	55                   	push   %rbp
  1018c1:	48 89 e5             	mov    %rsp,%rbp
  1018c4:	50                   	push   %rax
  1018c5:	53                   	push   %rbx
  1018c6:	51                   	push   %rcx
  1018c7:	52                   	push   %rdx
  1018c8:	57                   	push   %rdi
  1018c9:	56                   	push   %rsi
  1018ca:	54                   	push   %rsp
  1018cb:	55                   	push   %rbp
  1018cc:	41 50                	push   %r8
  1018ce:	41 51                	push   %r9
  1018d0:	41 52                	push   %r10
  1018d2:	41 53                	push   %r11
  1018d4:	41 54                	push   %r12
  1018d6:	41 55                	push   %r13
  1018d8:	41 56                	push   %r14
  1018da:	41 57                	push   %r15
  1018dc:	9c                   	pushfq 
  1018dd:	bf 08 00 00 00       	mov    $0x8,%edi
  1018e2:	e8 71 74 00 00       	callq  108d58 <intr_handler>
  1018e7:	9d                   	popfq  
  1018e8:	41 5f                	pop    %r15
  1018ea:	41 5e                	pop    %r14
  1018ec:	41 5d                	pop    %r13
  1018ee:	41 5c                	pop    %r12
  1018f0:	41 5b                	pop    %r11
  1018f2:	41 5a                	pop    %r10
  1018f4:	41 59                	pop    %r9
  1018f6:	41 58                	pop    %r8
  1018f8:	5d                   	pop    %rbp
  1018f9:	48 83 c4 08          	add    $0x8,%rsp
  1018fd:	5e                   	pop    %rsi
  1018fe:	5f                   	pop    %rdi
  1018ff:	5a                   	pop    %rdx
  101900:	59                   	pop    %rcx
  101901:	5b                   	pop    %rbx
  101902:	58                   	pop    %rax
  101903:	48 89 6c 24 38       	mov    %rbp,0x38(%rsp)
  101908:	48 cf                	iretq  

000000000010190a <intr_handler_9>:
  10190a:	55                   	push   %rbp
  10190b:	48 89 e5             	mov    %rsp,%rbp
  10190e:	50                   	push   %rax
  10190f:	53                   	push   %rbx
  101910:	51                   	push   %rcx
  101911:	52                   	push   %rdx
  101912:	57                   	push   %rdi
  101913:	56                   	push   %rsi
  101914:	54                   	push   %rsp
  101915:	55                   	push   %rbp
  101916:	41 50                	push   %r8
  101918:	41 51                	push   %r9
  10191a:	41 52                	push   %r10
  10191c:	41 53                	push   %r11
  10191e:	41 54                	push   %r12
  101920:	41 55                	push   %r13
  101922:	41 56                	push   %r14
  101924:	41 57                	push   %r15
  101926:	9c                   	pushfq 
  101927:	bf 09 00 00 00       	mov    $0x9,%edi
  10192c:	e8 27 74 00 00       	callq  108d58 <intr_handler>
  101931:	9d                   	popfq  
  101932:	41 5f                	pop    %r15
  101934:	41 5e                	pop    %r14
  101936:	41 5d                	pop    %r13
  101938:	41 5c                	pop    %r12
  10193a:	41 5b                	pop    %r11
  10193c:	41 5a                	pop    %r10
  10193e:	41 59                	pop    %r9
  101940:	41 58                	pop    %r8
  101942:	5d                   	pop    %rbp
  101943:	48 83 c4 08          	add    $0x8,%rsp
  101947:	5e                   	pop    %rsi
  101948:	5f                   	pop    %rdi
  101949:	5a                   	pop    %rdx
  10194a:	59                   	pop    %rcx
  10194b:	5b                   	pop    %rbx
  10194c:	58                   	pop    %rax
  10194d:	48 89 6c 24 38       	mov    %rbp,0x38(%rsp)
  101952:	48 cf                	iretq  

0000000000101954 <intr_handler_10>:
  101954:	55                   	push   %rbp
  101955:	48 89 e5             	mov    %rsp,%rbp
  101958:	50                   	push   %rax
  101959:	53                   	push   %rbx
  10195a:	51                   	push   %rcx
  10195b:	52                   	push   %rdx
  10195c:	57                   	push   %rdi
  10195d:	56                   	push   %rsi
  10195e:	54                   	push   %rsp
  10195f:	55                   	push   %rbp
  101960:	41 50                	push   %r8
  101962:	41 51                	push   %r9
  101964:	41 52                	push   %r10
  101966:	41 53                	push   %r11
  101968:	41 54                	push   %r12
  10196a:	41 55                	push   %r13
  10196c:	41 56                	push   %r14
  10196e:	41 57                	push   %r15
  101970:	9c                   	pushfq 
  101971:	bf 0a 00 00 00       	mov    $0xa,%edi
  101976:	e8 dd 73 00 00       	callq  108d58 <intr_handler>
  10197b:	9d                   	popfq  
  10197c:	41 5f                	pop    %r15
  10197e:	41 5e                	pop    %r14
  101980:	41 5d                	pop    %r13
  101982:	41 5c                	pop    %r12
  101984:	41 5b                	pop    %r11
  101986:	41 5a                	pop    %r10
  101988:	41 59                	pop    %r9
  10198a:	41 58                	pop    %r8
  10198c:	5d                   	pop    %rbp
  10198d:	48 83 c4 08          	add    $0x8,%rsp
  101991:	5e                   	pop    %rsi
  101992:	5f                   	pop    %rdi
  101993:	5a                   	pop    %rdx
  101994:	59                   	pop    %rcx
  101995:	5b                   	pop    %rbx
  101996:	58                   	pop    %rax
  101997:	48 89 6c 24 38       	mov    %rbp,0x38(%rsp)
  10199c:	48 cf                	iretq  

000000000010199e <intr_handler_11>:
  10199e:	55                   	push   %rbp
  10199f:	48 89 e5             	mov    %rsp,%rbp
  1019a2:	50                   	push   %rax
  1019a3:	53                   	push   %rbx
  1019a4:	51                   	push   %rcx
  1019a5:	52                   	push   %rdx
  1019a6:	57                   	push   %rdi
  1019a7:	56                   	push   %rsi
  1019a8:	54                   	push   %rsp
  1019a9:	55                   	push   %rbp
  1019aa:	41 50                	push   %r8
  1019ac:	41 51                	push   %r9
  1019ae:	41 52                	push   %r10
  1019b0:	41 53                	push   %r11
  1019b2:	41 54                	push   %r12
  1019b4:	41 55                	push   %r13
  1019b6:	41 56                	push   %r14
  1019b8:	41 57                	push   %r15
  1019ba:	9c                   	pushfq 
  1019bb:	bf 0b 00 00 00       	mov    $0xb,%edi
  1019c0:	e8 93 73 00 00       	callq  108d58 <intr_handler>
  1019c5:	9d                   	popfq  
  1019c6:	41 5f                	pop    %r15
  1019c8:	41 5e                	pop    %r14
  1019ca:	41 5d                	pop    %r13
  1019cc:	41 5c                	pop    %r12
  1019ce:	41 5b                	pop    %r11
  1019d0:	41 5a                	pop    %r10
  1019d2:	41 59                	pop    %r9
  1019d4:	41 58                	pop    %r8
  1019d6:	5d                   	pop    %rbp
  1019d7:	48 83 c4 08          	add    $0x8,%rsp
  1019db:	5e                   	pop    %rsi
  1019dc:	5f                   	pop    %rdi
  1019dd:	5a                   	pop    %rdx
  1019de:	59                   	pop    %rcx
  1019df:	5b                   	pop    %rbx
  1019e0:	58                   	pop    %rax
  1019e1:	48 89 6c 24 38       	mov    %rbp,0x38(%rsp)
  1019e6:	48 cf                	iretq  

00000000001019e8 <intr_handler_12>:
  1019e8:	55                   	push   %rbp
  1019e9:	48 89 e5             	mov    %rsp,%rbp
  1019ec:	50                   	push   %rax
  1019ed:	53                   	push   %rbx
  1019ee:	51                   	push   %rcx
  1019ef:	52                   	push   %rdx
  1019f0:	57                   	push   %rdi
  1019f1:	56                   	push   %rsi
  1019f2:	54                   	push   %rsp
  1019f3:	55                   	push   %rbp
  1019f4:	41 50                	push   %r8
  1019f6:	41 51                	push   %r9
  1019f8:	41 52                	push   %r10
  1019fa:	41 53                	push   %r11
  1019fc:	41 54                	push   %r12
  1019fe:	41 55                	push   %r13
  101a00:	41 56                	push   %r14
  101a02:	41 57                	push   %r15
  101a04:	9c                   	pushfq 
  101a05:	bf 0c 00 00 00       	mov    $0xc,%edi
  101a0a:	e8 49 73 00 00       	callq  108d58 <intr_handler>
  101a0f:	9d                   	popfq  
  101a10:	41 5f                	pop    %r15
  101a12:	41 5e                	pop    %r14
  101a14:	41 5d                	pop    %r13
  101a16:	41 5c                	pop    %r12
  101a18:	41 5b                	pop    %r11
  101a1a:	41 5a                	pop    %r10
  101a1c:	41 59                	pop    %r9
  101a1e:	41 58                	pop    %r8
  101a20:	5d                   	pop    %rbp
  101a21:	48 83 c4 08          	add    $0x8,%rsp
  101a25:	5e                   	pop    %rsi
  101a26:	5f                   	pop    %rdi
  101a27:	5a                   	pop    %rdx
  101a28:	59                   	pop    %rcx
  101a29:	5b                   	pop    %rbx
  101a2a:	58                   	pop    %rax
  101a2b:	48 89 6c 24 38       	mov    %rbp,0x38(%rsp)
  101a30:	48 cf                	iretq  

0000000000101a32 <intr_handler_13>:
  101a32:	55                   	push   %rbp
  101a33:	48 89 e5             	mov    %rsp,%rbp
  101a36:	50                   	push   %rax
  101a37:	53                   	push   %rbx
  101a38:	51                   	push   %rcx
  101a39:	52                   	push   %rdx
  101a3a:	57                   	push   %rdi
  101a3b:	56                   	push   %rsi
  101a3c:	54                   	push   %rsp
  101a3d:	55                   	push   %rbp
  101a3e:	41 50                	push   %r8
  101a40:	41 51                	push   %r9
  101a42:	41 52                	push   %r10
  101a44:	41 53                	push   %r11
  101a46:	41 54                	push   %r12
  101a48:	41 55                	push   %r13
  101a4a:	41 56                	push   %r14
  101a4c:	41 57                	push   %r15
  101a4e:	9c                   	pushfq 
  101a4f:	bf 0d 00 00 00       	mov    $0xd,%edi
  101a54:	e8 ff 72 00 00       	callq  108d58 <intr_handler>
  101a59:	9d                   	popfq  
  101a5a:	41 5f                	pop    %r15
  101a5c:	41 5e                	pop    %r14
  101a5e:	41 5d                	pop    %r13
  101a60:	41 5c                	pop    %r12
  101a62:	41 5b                	pop    %r11
  101a64:	41 5a                	pop    %r10
  101a66:	41 59                	pop    %r9
  101a68:	41 58                	pop    %r8
  101a6a:	5d                   	pop    %rbp
  101a6b:	48 83 c4 08          	add    $0x8,%rsp
  101a6f:	5e                   	pop    %rsi
  101a70:	5f                   	pop    %rdi
  101a71:	5a                   	pop    %rdx
  101a72:	59                   	pop    %rcx
  101a73:	5b                   	pop    %rbx
  101a74:	58                   	pop    %rax
  101a75:	48 89 6c 24 38       	mov    %rbp,0x38(%rsp)
  101a7a:	48 cf                	iretq  

0000000000101a7c <intr_handler_14>:
  101a7c:	55                   	push   %rbp
  101a7d:	48 89 e5             	mov    %rsp,%rbp
  101a80:	50                   	push   %rax
  101a81:	53                   	push   %rbx
  101a82:	51                   	push   %rcx
  101a83:	52                   	push   %rdx
  101a84:	57                   	push   %rdi
  101a85:	56                   	push   %rsi
  101a86:	54                   	push   %rsp
  101a87:	55                   	push   %rbp
  101a88:	41 50                	push   %r8
  101a8a:	41 51                	push   %r9
  101a8c:	41 52                	push   %r10
  101a8e:	41 53                	push   %r11
  101a90:	41 54                	push   %r12
  101a92:	41 55                	push   %r13
  101a94:	41 56                	push   %r14
  101a96:	41 57                	push   %r15
  101a98:	9c                   	pushfq 
  101a99:	bf 0e 00 00 00       	mov    $0xe,%edi
  101a9e:	e8 b5 72 00 00       	callq  108d58 <intr_handler>
  101aa3:	9d                   	popfq  
  101aa4:	41 5f                	pop    %r15
  101aa6:	41 5e                	pop    %r14
  101aa8:	41 5d                	pop    %r13
  101aaa:	41 5c                	pop    %r12
  101aac:	41 5b                	pop    %r11
  101aae:	41 5a                	pop    %r10
  101ab0:	41 59                	pop    %r9
  101ab2:	41 58                	pop    %r8
  101ab4:	5d                   	pop    %rbp
  101ab5:	48 83 c4 08          	add    $0x8,%rsp
  101ab9:	5e                   	pop    %rsi
  101aba:	5f                   	pop    %rdi
  101abb:	5a                   	pop    %rdx
  101abc:	59                   	pop    %rcx
  101abd:	5b                   	pop    %rbx
  101abe:	58                   	pop    %rax
  101abf:	48 89 6c 24 38       	mov    %rbp,0x38(%rsp)
  101ac4:	48 cf                	iretq  

0000000000101ac6 <intr_handler_15>:
  101ac6:	55                   	push   %rbp
  101ac7:	48 89 e5             	mov    %rsp,%rbp
  101aca:	50                   	push   %rax
  101acb:	53                   	push   %rbx
  101acc:	51                   	push   %rcx
  101acd:	52                   	push   %rdx
  101ace:	57                   	push   %rdi
  101acf:	56                   	push   %rsi
  101ad0:	54                   	push   %rsp
  101ad1:	55                   	push   %rbp
  101ad2:	41 50                	push   %r8
  101ad4:	41 51                	push   %r9
  101ad6:	41 52                	push   %r10
  101ad8:	41 53                	push   %r11
  101ada:	41 54                	push   %r12
  101adc:	41 55                	push   %r13
  101ade:	41 56                	push   %r14
  101ae0:	41 57                	push   %r15
  101ae2:	9c                   	pushfq 
  101ae3:	bf 0f 00 00 00       	mov    $0xf,%edi
  101ae8:	e8 6b 72 00 00       	callq  108d58 <intr_handler>
  101aed:	9d                   	popfq  
  101aee:	41 5f                	pop    %r15
  101af0:	41 5e                	pop    %r14
  101af2:	41 5d                	pop    %r13
  101af4:	41 5c                	pop    %r12
  101af6:	41 5b                	pop    %r11
  101af8:	41 5a                	pop    %r10
  101afa:	41 59                	pop    %r9
  101afc:	41 58                	pop    %r8
  101afe:	5d                   	pop    %rbp
  101aff:	48 83 c4 08          	add    $0x8,%rsp
  101b03:	5e                   	pop    %rsi
  101b04:	5f                   	pop    %rdi
  101b05:	5a                   	pop    %rdx
  101b06:	59                   	pop    %rcx
  101b07:	5b                   	pop    %rbx
  101b08:	58                   	pop    %rax
  101b09:	48 89 6c 24 38       	mov    %rbp,0x38(%rsp)
  101b0e:	48 cf                	iretq  

0000000000101b10 <intr_handler_16>:
  101b10:	55                   	push   %rbp
  101b11:	48 89 e5             	mov    %rsp,%rbp
  101b14:	50                   	push   %rax
  101b15:	53                   	push   %rbx
  101b16:	51                   	push   %rcx
  101b17:	52                   	push   %rdx
  101b18:	57                   	push   %rdi
  101b19:	56                   	push   %rsi
  101b1a:	54                   	push   %rsp
  101b1b:	55                   	push   %rbp
  101b1c:	41 50                	push   %r8
  101b1e:	41 51                	push   %r9
  101b20:	41 52                	push   %r10
  101b22:	41 53                	push   %r11
  101b24:	41 54                	push   %r12
  101b26:	41 55                	push   %r13
  101b28:	41 56                	push   %r14
  101b2a:	41 57                	push   %r15
  101b2c:	9c                   	pushfq 
  101b2d:	bf 10 00 00 00       	mov    $0x10,%edi
  101b32:	e8 21 72 00 00       	callq  108d58 <intr_handler>
  101b37:	9d                   	popfq  
  101b38:	41 5f                	pop    %r15
  101b3a:	41 5e                	pop    %r14
  101b3c:	41 5d                	pop    %r13
  101b3e:	41 5c                	pop    %r12
  101b40:	41 5b                	pop    %r11
  101b42:	41 5a                	pop    %r10
  101b44:	41 59                	pop    %r9
  101b46:	41 58                	pop    %r8
  101b48:	5d                   	pop    %rbp
  101b49:	48 83 c4 08          	add    $0x8,%rsp
  101b4d:	5e                   	pop    %rsi
  101b4e:	5f                   	pop    %rdi
  101b4f:	5a                   	pop    %rdx
  101b50:	59                   	pop    %rcx
  101b51:	5b                   	pop    %rbx
  101b52:	58                   	pop    %rax
  101b53:	48 89 6c 24 38       	mov    %rbp,0x38(%rsp)
  101b58:	48 cf                	iretq  

0000000000101b5a <intr_handler_17>:
  101b5a:	55                   	push   %rbp
  101b5b:	48 89 e5             	mov    %rsp,%rbp
  101b5e:	50                   	push   %rax
  101b5f:	53                   	push   %rbx
  101b60:	51                   	push   %rcx
  101b61:	52                   	push   %rdx
  101b62:	57                   	push   %rdi
  101b63:	56                   	push   %rsi
  101b64:	54                   	push   %rsp
  101b65:	55                   	push   %rbp
  101b66:	41 50                	push   %r8
  101b68:	41 51                	push   %r9
  101b6a:	41 52                	push   %r10
  101b6c:	41 53                	push   %r11
  101b6e:	41 54                	push   %r12
  101b70:	41 55                	push   %r13
  101b72:	41 56                	push   %r14
  101b74:	41 57                	push   %r15
  101b76:	9c                   	pushfq 
  101b77:	bf 11 00 00 00       	mov    $0x11,%edi
  101b7c:	e8 d7 71 00 00       	callq  108d58 <intr_handler>
  101b81:	9d                   	popfq  
  101b82:	41 5f                	pop    %r15
  101b84:	41 5e                	pop    %r14
  101b86:	41 5d                	pop    %r13
  101b88:	41 5c                	pop    %r12
  101b8a:	41 5b                	pop    %r11
  101b8c:	41 5a                	pop    %r10
  101b8e:	41 59                	pop    %r9
  101b90:	41 58                	pop    %r8
  101b92:	5d                   	pop    %rbp
  101b93:	48 83 c4 08          	add    $0x8,%rsp
  101b97:	5e                   	pop    %rsi
  101b98:	5f                   	pop    %rdi
  101b99:	5a                   	pop    %rdx
  101b9a:	59                   	pop    %rcx
  101b9b:	5b                   	pop    %rbx
  101b9c:	58                   	pop    %rax
  101b9d:	48 89 6c 24 38       	mov    %rbp,0x38(%rsp)
  101ba2:	48 cf                	iretq  

0000000000101ba4 <intr_handler_18>:
  101ba4:	55                   	push   %rbp
  101ba5:	48 89 e5             	mov    %rsp,%rbp
  101ba8:	50                   	push   %rax
  101ba9:	53                   	push   %rbx
  101baa:	51                   	push   %rcx
  101bab:	52                   	push   %rdx
  101bac:	57                   	push   %rdi
  101bad:	56                   	push   %rsi
  101bae:	54                   	push   %rsp
  101baf:	55                   	push   %rbp
  101bb0:	41 50                	push   %r8
  101bb2:	41 51                	push   %r9
  101bb4:	41 52                	push   %r10
  101bb6:	41 53                	push   %r11
  101bb8:	41 54                	push   %r12
  101bba:	41 55                	push   %r13
  101bbc:	41 56                	push   %r14
  101bbe:	41 57                	push   %r15
  101bc0:	9c                   	pushfq 
  101bc1:	bf 12 00 00 00       	mov    $0x12,%edi
  101bc6:	e8 8d 71 00 00       	callq  108d58 <intr_handler>
  101bcb:	9d                   	popfq  
  101bcc:	41 5f                	pop    %r15
  101bce:	41 5e                	pop    %r14
  101bd0:	41 5d                	pop    %r13
  101bd2:	41 5c                	pop    %r12
  101bd4:	41 5b                	pop    %r11
  101bd6:	41 5a                	pop    %r10
  101bd8:	41 59                	pop    %r9
  101bda:	41 58                	pop    %r8
  101bdc:	5d                   	pop    %rbp
  101bdd:	48 83 c4 08          	add    $0x8,%rsp
  101be1:	5e                   	pop    %rsi
  101be2:	5f                   	pop    %rdi
  101be3:	5a                   	pop    %rdx
  101be4:	59                   	pop    %rcx
  101be5:	5b                   	pop    %rbx
  101be6:	58                   	pop    %rax
  101be7:	48 89 6c 24 38       	mov    %rbp,0x38(%rsp)
  101bec:	48 cf                	iretq  

0000000000101bee <intr_handler_19>:
  101bee:	55                   	push   %rbp
  101bef:	48 89 e5             	mov    %rsp,%rbp
  101bf2:	50                   	push   %rax
  101bf3:	53                   	push   %rbx
  101bf4:	51                   	push   %rcx
  101bf5:	52                   	push   %rdx
  101bf6:	57                   	push   %rdi
  101bf7:	56                   	push   %rsi
  101bf8:	54                   	push   %rsp
  101bf9:	55                   	push   %rbp
  101bfa:	41 50                	push   %r8
  101bfc:	41 51                	push   %r9
  101bfe:	41 52                	push   %r10
  101c00:	41 53                	push   %r11
  101c02:	41 54                	push   %r12
  101c04:	41 55                	push   %r13
  101c06:	41 56                	push   %r14
  101c08:	41 57                	push   %r15
  101c0a:	9c                   	pushfq 
  101c0b:	bf 13 00 00 00       	mov    $0x13,%edi
  101c10:	e8 43 71 00 00       	callq  108d58 <intr_handler>
  101c15:	9d                   	popfq  
  101c16:	41 5f                	pop    %r15
  101c18:	41 5e                	pop    %r14
  101c1a:	41 5d                	pop    %r13
  101c1c:	41 5c                	pop    %r12
  101c1e:	41 5b                	pop    %r11
  101c20:	41 5a                	pop    %r10
  101c22:	41 59                	pop    %r9
  101c24:	41 58                	pop    %r8
  101c26:	5d                   	pop    %rbp
  101c27:	48 83 c4 08          	add    $0x8,%rsp
  101c2b:	5e                   	pop    %rsi
  101c2c:	5f                   	pop    %rdi
  101c2d:	5a                   	pop    %rdx
  101c2e:	59                   	pop    %rcx
  101c2f:	5b                   	pop    %rbx
  101c30:	58                   	pop    %rax
  101c31:	48 89 6c 24 38       	mov    %rbp,0x38(%rsp)
  101c36:	48 cf                	iretq  

0000000000101c38 <intr_handler_20>:
  101c38:	55                   	push   %rbp
  101c39:	48 89 e5             	mov    %rsp,%rbp
  101c3c:	50                   	push   %rax
  101c3d:	53                   	push   %rbx
  101c3e:	51                   	push   %rcx
  101c3f:	52                   	push   %rdx
  101c40:	57                   	push   %rdi
  101c41:	56                   	push   %rsi
  101c42:	54                   	push   %rsp
  101c43:	55                   	push   %rbp
  101c44:	41 50                	push   %r8
  101c46:	41 51                	push   %r9
  101c48:	41 52                	push   %r10
  101c4a:	41 53                	push   %r11
  101c4c:	41 54                	push   %r12
  101c4e:	41 55                	push   %r13
  101c50:	41 56                	push   %r14
  101c52:	41 57                	push   %r15
  101c54:	9c                   	pushfq 
  101c55:	bf 14 00 00 00       	mov    $0x14,%edi
  101c5a:	e8 f9 70 00 00       	callq  108d58 <intr_handler>
  101c5f:	9d                   	popfq  
  101c60:	41 5f                	pop    %r15
  101c62:	41 5e                	pop    %r14
  101c64:	41 5d                	pop    %r13
  101c66:	41 5c                	pop    %r12
  101c68:	41 5b                	pop    %r11
  101c6a:	41 5a                	pop    %r10
  101c6c:	41 59                	pop    %r9
  101c6e:	41 58                	pop    %r8
  101c70:	5d                   	pop    %rbp
  101c71:	48 83 c4 08          	add    $0x8,%rsp
  101c75:	5e                   	pop    %rsi
  101c76:	5f                   	pop    %rdi
  101c77:	5a                   	pop    %rdx
  101c78:	59                   	pop    %rcx
  101c79:	5b                   	pop    %rbx
  101c7a:	58                   	pop    %rax
  101c7b:	48 89 6c 24 38       	mov    %rbp,0x38(%rsp)
  101c80:	48 cf                	iretq  

0000000000101c82 <intr_handler_21>:
  101c82:	55                   	push   %rbp
  101c83:	48 89 e5             	mov    %rsp,%rbp
  101c86:	50                   	push   %rax
  101c87:	53                   	push   %rbx
  101c88:	51                   	push   %rcx
  101c89:	52                   	push   %rdx
  101c8a:	57                   	push   %rdi
  101c8b:	56                   	push   %rsi
  101c8c:	54                   	push   %rsp
  101c8d:	55                   	push   %rbp
  101c8e:	41 50                	push   %r8
  101c90:	41 51                	push   %r9
  101c92:	41 52                	push   %r10
  101c94:	41 53                	push   %r11
  101c96:	41 54                	push   %r12
  101c98:	41 55                	push   %r13
  101c9a:	41 56                	push   %r14
  101c9c:	41 57                	push   %r15
  101c9e:	9c                   	pushfq 
  101c9f:	bf 15 00 00 00       	mov    $0x15,%edi
  101ca4:	e8 af 70 00 00       	callq  108d58 <intr_handler>
  101ca9:	9d                   	popfq  
  101caa:	41 5f                	pop    %r15
  101cac:	41 5e                	pop    %r14
  101cae:	41 5d                	pop    %r13
  101cb0:	41 5c                	pop    %r12
  101cb2:	41 5b                	pop    %r11
  101cb4:	41 5a                	pop    %r10
  101cb6:	41 59                	pop    %r9
  101cb8:	41 58                	pop    %r8
  101cba:	5d                   	pop    %rbp
  101cbb:	48 83 c4 08          	add    $0x8,%rsp
  101cbf:	5e                   	pop    %rsi
  101cc0:	5f                   	pop    %rdi
  101cc1:	5a                   	pop    %rdx
  101cc2:	59                   	pop    %rcx
  101cc3:	5b                   	pop    %rbx
  101cc4:	58                   	pop    %rax
  101cc5:	48 89 6c 24 38       	mov    %rbp,0x38(%rsp)
  101cca:	48 cf                	iretq  

0000000000101ccc <intr_handler_22>:
  101ccc:	55                   	push   %rbp
  101ccd:	48 89 e5             	mov    %rsp,%rbp
  101cd0:	50                   	push   %rax
  101cd1:	53                   	push   %rbx
  101cd2:	51                   	push   %rcx
  101cd3:	52                   	push   %rdx
  101cd4:	57                   	push   %rdi
  101cd5:	56                   	push   %rsi
  101cd6:	54                   	push   %rsp
  101cd7:	55                   	push   %rbp
  101cd8:	41 50                	push   %r8
  101cda:	41 51                	push   %r9
  101cdc:	41 52                	push   %r10
  101cde:	41 53                	push   %r11
  101ce0:	41 54                	push   %r12
  101ce2:	41 55                	push   %r13
  101ce4:	41 56                	push   %r14
  101ce6:	41 57                	push   %r15
  101ce8:	9c                   	pushfq 
  101ce9:	bf 16 00 00 00       	mov    $0x16,%edi
  101cee:	e8 65 70 00 00       	callq  108d58 <intr_handler>
  101cf3:	9d                   	popfq  
  101cf4:	41 5f                	pop    %r15
  101cf6:	41 5e                	pop    %r14
  101cf8:	41 5d                	pop    %r13
  101cfa:	41 5c                	pop    %r12
  101cfc:	41 5b                	pop    %r11
  101cfe:	41 5a                	pop    %r10
  101d00:	41 59                	pop    %r9
  101d02:	41 58                	pop    %r8
  101d04:	5d                   	pop    %rbp
  101d05:	48 83 c4 08          	add    $0x8,%rsp
  101d09:	5e                   	pop    %rsi
  101d0a:	5f                   	pop    %rdi
  101d0b:	5a                   	pop    %rdx
  101d0c:	59                   	pop    %rcx
  101d0d:	5b                   	pop    %rbx
  101d0e:	58                   	pop    %rax
  101d0f:	48 89 6c 24 38       	mov    %rbp,0x38(%rsp)
  101d14:	48 cf                	iretq  

0000000000101d16 <intr_handler_23>:
  101d16:	55                   	push   %rbp
  101d17:	48 89 e5             	mov    %rsp,%rbp
  101d1a:	50                   	push   %rax
  101d1b:	53                   	push   %rbx
  101d1c:	51                   	push   %rcx
  101d1d:	52                   	push   %rdx
  101d1e:	57                   	push   %rdi
  101d1f:	56                   	push   %rsi
  101d20:	54                   	push   %rsp
  101d21:	55                   	push   %rbp
  101d22:	41 50                	push   %r8
  101d24:	41 51                	push   %r9
  101d26:	41 52                	push   %r10
  101d28:	41 53                	push   %r11
  101d2a:	41 54                	push   %r12
  101d2c:	41 55                	push   %r13
  101d2e:	41 56                	push   %r14
  101d30:	41 57                	push   %r15
  101d32:	9c                   	pushfq 
  101d33:	bf 17 00 00 00       	mov    $0x17,%edi
  101d38:	e8 1b 70 00 00       	callq  108d58 <intr_handler>
  101d3d:	9d                   	popfq  
  101d3e:	41 5f                	pop    %r15
  101d40:	41 5e                	pop    %r14
  101d42:	41 5d                	pop    %r13
  101d44:	41 5c                	pop    %r12
  101d46:	41 5b                	pop    %r11
  101d48:	41 5a                	pop    %r10
  101d4a:	41 59                	pop    %r9
  101d4c:	41 58                	pop    %r8
  101d4e:	5d                   	pop    %rbp
  101d4f:	48 83 c4 08          	add    $0x8,%rsp
  101d53:	5e                   	pop    %rsi
  101d54:	5f                   	pop    %rdi
  101d55:	5a                   	pop    %rdx
  101d56:	59                   	pop    %rcx
  101d57:	5b                   	pop    %rbx
  101d58:	58                   	pop    %rax
  101d59:	48 89 6c 24 38       	mov    %rbp,0x38(%rsp)
  101d5e:	48 cf                	iretq  

0000000000101d60 <intr_handler_24>:
  101d60:	55                   	push   %rbp
  101d61:	48 89 e5             	mov    %rsp,%rbp
  101d64:	50                   	push   %rax
  101d65:	53                   	push   %rbx
  101d66:	51                   	push   %rcx
  101d67:	52                   	push   %rdx
  101d68:	57                   	push   %rdi
  101d69:	56                   	push   %rsi
  101d6a:	54                   	push   %rsp
  101d6b:	55                   	push   %rbp
  101d6c:	41 50                	push   %r8
  101d6e:	41 51                	push   %r9
  101d70:	41 52                	push   %r10
  101d72:	41 53                	push   %r11
  101d74:	41 54                	push   %r12
  101d76:	41 55                	push   %r13
  101d78:	41 56                	push   %r14
  101d7a:	41 57                	push   %r15
  101d7c:	9c                   	pushfq 
  101d7d:	bf 18 00 00 00       	mov    $0x18,%edi
  101d82:	e8 d1 6f 00 00       	callq  108d58 <intr_handler>
  101d87:	9d                   	popfq  
  101d88:	41 5f                	pop    %r15
  101d8a:	41 5e                	pop    %r14
  101d8c:	41 5d                	pop    %r13
  101d8e:	41 5c                	pop    %r12
  101d90:	41 5b                	pop    %r11
  101d92:	41 5a                	pop    %r10
  101d94:	41 59                	pop    %r9
  101d96:	41 58                	pop    %r8
  101d98:	5d                   	pop    %rbp
  101d99:	48 83 c4 08          	add    $0x8,%rsp
  101d9d:	5e                   	pop    %rsi
  101d9e:	5f                   	pop    %rdi
  101d9f:	5a                   	pop    %rdx
  101da0:	59                   	pop    %rcx
  101da1:	5b                   	pop    %rbx
  101da2:	58                   	pop    %rax
  101da3:	48 89 6c 24 38       	mov    %rbp,0x38(%rsp)
  101da8:	48 cf                	iretq  

0000000000101daa <intr_handler_25>:
  101daa:	55                   	push   %rbp
  101dab:	48 89 e5             	mov    %rsp,%rbp
  101dae:	50                   	push   %rax
  101daf:	53                   	push   %rbx
  101db0:	51                   	push   %rcx
  101db1:	52                   	push   %rdx
  101db2:	57                   	push   %rdi
  101db3:	56                   	push   %rsi
  101db4:	54                   	push   %rsp
  101db5:	55                   	push   %rbp
  101db6:	41 50                	push   %r8
  101db8:	41 51                	push   %r9
  101dba:	41 52                	push   %r10
  101dbc:	41 53                	push   %r11
  101dbe:	41 54                	push   %r12
  101dc0:	41 55                	push   %r13
  101dc2:	41 56                	push   %r14
  101dc4:	41 57                	push   %r15
  101dc6:	9c                   	pushfq 
  101dc7:	bf 19 00 00 00       	mov    $0x19,%edi
  101dcc:	e8 87 6f 00 00       	callq  108d58 <intr_handler>
  101dd1:	9d                   	popfq  
  101dd2:	41 5f                	pop    %r15
  101dd4:	41 5e                	pop    %r14
  101dd6:	41 5d                	pop    %r13
  101dd8:	41 5c                	pop    %r12
  101dda:	41 5b                	pop    %r11
  101ddc:	41 5a                	pop    %r10
  101dde:	41 59                	pop    %r9
  101de0:	41 58                	pop    %r8
  101de2:	5d                   	pop    %rbp
  101de3:	48 83 c4 08          	add    $0x8,%rsp
  101de7:	5e                   	pop    %rsi
  101de8:	5f                   	pop    %rdi
  101de9:	5a                   	pop    %rdx
  101dea:	59                   	pop    %rcx
  101deb:	5b                   	pop    %rbx
  101dec:	58                   	pop    %rax
  101ded:	48 89 6c 24 38       	mov    %rbp,0x38(%rsp)
  101df2:	48 cf                	iretq  

0000000000101df4 <intr_handler_26>:
  101df4:	55                   	push   %rbp
  101df5:	48 89 e5             	mov    %rsp,%rbp
  101df8:	50                   	push   %rax
  101df9:	53                   	push   %rbx
  101dfa:	51                   	push   %rcx
  101dfb:	52                   	push   %rdx
  101dfc:	57                   	push   %rdi
  101dfd:	56                   	push   %rsi
  101dfe:	54                   	push   %rsp
  101dff:	55                   	push   %rbp
  101e00:	41 50                	push   %r8
  101e02:	41 51                	push   %r9
  101e04:	41 52                	push   %r10
  101e06:	41 53                	push   %r11
  101e08:	41 54                	push   %r12
  101e0a:	41 55                	push   %r13
  101e0c:	41 56                	push   %r14
  101e0e:	41 57                	push   %r15
  101e10:	9c                   	pushfq 
  101e11:	bf 1a 00 00 00       	mov    $0x1a,%edi
  101e16:	e8 3d 6f 00 00       	callq  108d58 <intr_handler>
  101e1b:	9d                   	popfq  
  101e1c:	41 5f                	pop    %r15
  101e1e:	41 5e                	pop    %r14
  101e20:	41 5d                	pop    %r13
  101e22:	41 5c                	pop    %r12
  101e24:	41 5b                	pop    %r11
  101e26:	41 5a                	pop    %r10
  101e28:	41 59                	pop    %r9
  101e2a:	41 58                	pop    %r8
  101e2c:	5d                   	pop    %rbp
  101e2d:	48 83 c4 08          	add    $0x8,%rsp
  101e31:	5e                   	pop    %rsi
  101e32:	5f                   	pop    %rdi
  101e33:	5a                   	pop    %rdx
  101e34:	59                   	pop    %rcx
  101e35:	5b                   	pop    %rbx
  101e36:	58                   	pop    %rax
  101e37:	48 89 6c 24 38       	mov    %rbp,0x38(%rsp)
  101e3c:	48 cf                	iretq  

0000000000101e3e <intr_handler_27>:
  101e3e:	55                   	push   %rbp
  101e3f:	48 89 e5             	mov    %rsp,%rbp
  101e42:	50                   	push   %rax
  101e43:	53                   	push   %rbx
  101e44:	51                   	push   %rcx
  101e45:	52                   	push   %rdx
  101e46:	57                   	push   %rdi
  101e47:	56                   	push   %rsi
  101e48:	54                   	push   %rsp
  101e49:	55                   	push   %rbp
  101e4a:	41 50                	push   %r8
  101e4c:	41 51                	push   %r9
  101e4e:	41 52                	push   %r10
  101e50:	41 53                	push   %r11
  101e52:	41 54                	push   %r12
  101e54:	41 55                	push   %r13
  101e56:	41 56                	push   %r14
  101e58:	41 57                	push   %r15
  101e5a:	9c                   	pushfq 
  101e5b:	bf 1b 00 00 00       	mov    $0x1b,%edi
  101e60:	e8 f3 6e 00 00       	callq  108d58 <intr_handler>
  101e65:	9d                   	popfq  
  101e66:	41 5f                	pop    %r15
  101e68:	41 5e                	pop    %r14
  101e6a:	41 5d                	pop    %r13
  101e6c:	41 5c                	pop    %r12
  101e6e:	41 5b                	pop    %r11
  101e70:	41 5a                	pop    %r10
  101e72:	41 59                	pop    %r9
  101e74:	41 58                	pop    %r8
  101e76:	5d                   	pop    %rbp
  101e77:	48 83 c4 08          	add    $0x8,%rsp
  101e7b:	5e                   	pop    %rsi
  101e7c:	5f                   	pop    %rdi
  101e7d:	5a                   	pop    %rdx
  101e7e:	59                   	pop    %rcx
  101e7f:	5b                   	pop    %rbx
  101e80:	58                   	pop    %rax
  101e81:	48 89 6c 24 38       	mov    %rbp,0x38(%rsp)
  101e86:	48 cf                	iretq  

0000000000101e88 <intr_handler_28>:
  101e88:	55                   	push   %rbp
  101e89:	48 89 e5             	mov    %rsp,%rbp
  101e8c:	50                   	push   %rax
  101e8d:	53                   	push   %rbx
  101e8e:	51                   	push   %rcx
  101e8f:	52                   	push   %rdx
  101e90:	57                   	push   %rdi
  101e91:	56                   	push   %rsi
  101e92:	54                   	push   %rsp
  101e93:	55                   	push   %rbp
  101e94:	41 50                	push   %r8
  101e96:	41 51                	push   %r9
  101e98:	41 52                	push   %r10
  101e9a:	41 53                	push   %r11
  101e9c:	41 54                	push   %r12
  101e9e:	41 55                	push   %r13
  101ea0:	41 56                	push   %r14
  101ea2:	41 57                	push   %r15
  101ea4:	9c                   	pushfq 
  101ea5:	bf 1c 00 00 00       	mov    $0x1c,%edi
  101eaa:	e8 a9 6e 00 00       	callq  108d58 <intr_handler>
  101eaf:	9d                   	popfq  
  101eb0:	41 5f                	pop    %r15
  101eb2:	41 5e                	pop    %r14
  101eb4:	41 5d                	pop    %r13
  101eb6:	41 5c                	pop    %r12
  101eb8:	41 5b                	pop    %r11
  101eba:	41 5a                	pop    %r10
  101ebc:	41 59                	pop    %r9
  101ebe:	41 58                	pop    %r8
  101ec0:	5d                   	pop    %rbp
  101ec1:	48 83 c4 08          	add    $0x8,%rsp
  101ec5:	5e                   	pop    %rsi
  101ec6:	5f                   	pop    %rdi
  101ec7:	5a                   	pop    %rdx
  101ec8:	59                   	pop    %rcx
  101ec9:	5b                   	pop    %rbx
  101eca:	58                   	pop    %rax
  101ecb:	48 89 6c 24 38       	mov    %rbp,0x38(%rsp)
  101ed0:	48 cf                	iretq  

0000000000101ed2 <intr_handler_29>:
  101ed2:	55                   	push   %rbp
  101ed3:	48 89 e5             	mov    %rsp,%rbp
  101ed6:	50                   	push   %rax
  101ed7:	53                   	push   %rbx
  101ed8:	51                   	push   %rcx
  101ed9:	52                   	push   %rdx
  101eda:	57                   	push   %rdi
  101edb:	56                   	push   %rsi
  101edc:	54                   	push   %rsp
  101edd:	55                   	push   %rbp
  101ede:	41 50                	push   %r8
  101ee0:	41 51                	push   %r9
  101ee2:	41 52                	push   %r10
  101ee4:	41 53                	push   %r11
  101ee6:	41 54                	push   %r12
  101ee8:	41 55                	push   %r13
  101eea:	41 56                	push   %r14
  101eec:	41 57                	push   %r15
  101eee:	9c                   	pushfq 
  101eef:	bf 1d 00 00 00       	mov    $0x1d,%edi
  101ef4:	e8 5f 6e 00 00       	callq  108d58 <intr_handler>
  101ef9:	9d                   	popfq  
  101efa:	41 5f                	pop    %r15
  101efc:	41 5e                	pop    %r14
  101efe:	41 5d                	pop    %r13
  101f00:	41 5c                	pop    %r12
  101f02:	41 5b                	pop    %r11
  101f04:	41 5a                	pop    %r10
  101f06:	41 59                	pop    %r9
  101f08:	41 58                	pop    %r8
  101f0a:	5d                   	pop    %rbp
  101f0b:	48 83 c4 08          	add    $0x8,%rsp
  101f0f:	5e                   	pop    %rsi
  101f10:	5f                   	pop    %rdi
  101f11:	5a                   	pop    %rdx
  101f12:	59                   	pop    %rcx
  101f13:	5b                   	pop    %rbx
  101f14:	58                   	pop    %rax
  101f15:	48 89 6c 24 38       	mov    %rbp,0x38(%rsp)
  101f1a:	48 cf                	iretq  

0000000000101f1c <intr_handler_30>:
  101f1c:	55                   	push   %rbp
  101f1d:	48 89 e5             	mov    %rsp,%rbp
  101f20:	50                   	push   %rax
  101f21:	53                   	push   %rbx
  101f22:	51                   	push   %rcx
  101f23:	52                   	push   %rdx
  101f24:	57                   	push   %rdi
  101f25:	56                   	push   %rsi
  101f26:	54                   	push   %rsp
  101f27:	55                   	push   %rbp
  101f28:	41 50                	push   %r8
  101f2a:	41 51                	push   %r9
  101f2c:	41 52                	push   %r10
  101f2e:	41 53                	push   %r11
  101f30:	41 54                	push   %r12
  101f32:	41 55                	push   %r13
  101f34:	41 56                	push   %r14
  101f36:	41 57                	push   %r15
  101f38:	9c                   	pushfq 
  101f39:	bf 1e 00 00 00       	mov    $0x1e,%edi
  101f3e:	e8 15 6e 00 00       	callq  108d58 <intr_handler>
  101f43:	9d                   	popfq  
  101f44:	41 5f                	pop    %r15
  101f46:	41 5e                	pop    %r14
  101f48:	41 5d                	pop    %r13
  101f4a:	41 5c                	pop    %r12
  101f4c:	41 5b                	pop    %r11
  101f4e:	41 5a                	pop    %r10
  101f50:	41 59                	pop    %r9
  101f52:	41 58                	pop    %r8
  101f54:	5d                   	pop    %rbp
  101f55:	48 83 c4 08          	add    $0x8,%rsp
  101f59:	5e                   	pop    %rsi
  101f5a:	5f                   	pop    %rdi
  101f5b:	5a                   	pop    %rdx
  101f5c:	59                   	pop    %rcx
  101f5d:	5b                   	pop    %rbx
  101f5e:	58                   	pop    %rax
  101f5f:	48 89 6c 24 38       	mov    %rbp,0x38(%rsp)
  101f64:	48 cf                	iretq  

0000000000101f66 <intr_handler_31>:
  101f66:	55                   	push   %rbp
  101f67:	48 89 e5             	mov    %rsp,%rbp
  101f6a:	50                   	push   %rax
  101f6b:	53                   	push   %rbx
  101f6c:	51                   	push   %rcx
  101f6d:	52                   	push   %rdx
  101f6e:	57                   	push   %rdi
  101f6f:	56                   	push   %rsi
  101f70:	54                   	push   %rsp
  101f71:	55                   	push   %rbp
  101f72:	41 50                	push   %r8
  101f74:	41 51                	push   %r9
  101f76:	41 52                	push   %r10
  101f78:	41 53                	push   %r11
  101f7a:	41 54                	push   %r12
  101f7c:	41 55                	push   %r13
  101f7e:	41 56                	push   %r14
  101f80:	41 57                	push   %r15
  101f82:	9c                   	pushfq 
  101f83:	bf 1f 00 00 00       	mov    $0x1f,%edi
  101f88:	e8 cb 6d 00 00       	callq  108d58 <intr_handler>
  101f8d:	9d                   	popfq  
  101f8e:	41 5f                	pop    %r15
  101f90:	41 5e                	pop    %r14
  101f92:	41 5d                	pop    %r13
  101f94:	41 5c                	pop    %r12
  101f96:	41 5b                	pop    %r11
  101f98:	41 5a                	pop    %r10
  101f9a:	41 59                	pop    %r9
  101f9c:	41 58                	pop    %r8
  101f9e:	5d                   	pop    %rbp
  101f9f:	48 83 c4 08          	add    $0x8,%rsp
  101fa3:	5e                   	pop    %rsi
  101fa4:	5f                   	pop    %rdi
  101fa5:	5a                   	pop    %rdx
  101fa6:	59                   	pop    %rcx
  101fa7:	5b                   	pop    %rbx
  101fa8:	58                   	pop    %rax
  101fa9:	48 89 6c 24 38       	mov    %rbp,0x38(%rsp)
  101fae:	48 cf                	iretq  

0000000000101fb0 <intr_handler_32>:
  101fb0:	55                   	push   %rbp
  101fb1:	48 89 e5             	mov    %rsp,%rbp
  101fb4:	50                   	push   %rax
  101fb5:	53                   	push   %rbx
  101fb6:	51                   	push   %rcx
  101fb7:	52                   	push   %rdx
  101fb8:	57                   	push   %rdi
  101fb9:	56                   	push   %rsi
  101fba:	54                   	push   %rsp
  101fbb:	55                   	push   %rbp
  101fbc:	41 50                	push   %r8
  101fbe:	41 51                	push   %r9
  101fc0:	41 52                	push   %r10
  101fc2:	41 53                	push   %r11
  101fc4:	41 54                	push   %r12
  101fc6:	41 55                	push   %r13
  101fc8:	41 56                	push   %r14
  101fca:	41 57                	push   %r15
  101fcc:	9c                   	pushfq 
  101fcd:	bf 20 00 00 00       	mov    $0x20,%edi
  101fd2:	e8 81 6d 00 00       	callq  108d58 <intr_handler>
  101fd7:	9d                   	popfq  
  101fd8:	41 5f                	pop    %r15
  101fda:	41 5e                	pop    %r14
  101fdc:	41 5d                	pop    %r13
  101fde:	41 5c                	pop    %r12
  101fe0:	41 5b                	pop    %r11
  101fe2:	41 5a                	pop    %r10
  101fe4:	41 59                	pop    %r9
  101fe6:	41 58                	pop    %r8
  101fe8:	5d                   	pop    %rbp
  101fe9:	48 83 c4 08          	add    $0x8,%rsp
  101fed:	5e                   	pop    %rsi
  101fee:	5f                   	pop    %rdi
  101fef:	5a                   	pop    %rdx
  101ff0:	59                   	pop    %rcx
  101ff1:	5b                   	pop    %rbx
  101ff2:	58                   	pop    %rax
  101ff3:	48 89 6c 24 38       	mov    %rbp,0x38(%rsp)
  101ff8:	48 cf                	iretq  

0000000000101ffa <intr_handler_33>:
  101ffa:	55                   	push   %rbp
  101ffb:	48 89 e5             	mov    %rsp,%rbp
  101ffe:	50                   	push   %rax
  101fff:	53                   	push   %rbx
  102000:	51                   	push   %rcx
  102001:	52                   	push   %rdx
  102002:	57                   	push   %rdi
  102003:	56                   	push   %rsi
  102004:	54                   	push   %rsp
  102005:	55                   	push   %rbp
  102006:	41 50                	push   %r8
  102008:	41 51                	push   %r9
  10200a:	41 52                	push   %r10
  10200c:	41 53                	push   %r11
  10200e:	41 54                	push   %r12
  102010:	41 55                	push   %r13
  102012:	41 56                	push   %r14
  102014:	41 57                	push   %r15
  102016:	9c                   	pushfq 
  102017:	bf 21 00 00 00       	mov    $0x21,%edi
  10201c:	e8 37 6d 00 00       	callq  108d58 <intr_handler>
  102021:	9d                   	popfq  
  102022:	41 5f                	pop    %r15
  102024:	41 5e                	pop    %r14
  102026:	41 5d                	pop    %r13
  102028:	41 5c                	pop    %r12
  10202a:	41 5b                	pop    %r11
  10202c:	41 5a                	pop    %r10
  10202e:	41 59                	pop    %r9
  102030:	41 58                	pop    %r8
  102032:	5d                   	pop    %rbp
  102033:	48 83 c4 08          	add    $0x8,%rsp
  102037:	5e                   	pop    %rsi
  102038:	5f                   	pop    %rdi
  102039:	5a                   	pop    %rdx
  10203a:	59                   	pop    %rcx
  10203b:	5b                   	pop    %rbx
  10203c:	58                   	pop    %rax
  10203d:	48 89 6c 24 38       	mov    %rbp,0x38(%rsp)
  102042:	48 cf                	iretq  

0000000000102044 <intr_handler_34>:
  102044:	55                   	push   %rbp
  102045:	48 89 e5             	mov    %rsp,%rbp
  102048:	50                   	push   %rax
  102049:	53                   	push   %rbx
  10204a:	51                   	push   %rcx
  10204b:	52                   	push   %rdx
  10204c:	57                   	push   %rdi
  10204d:	56                   	push   %rsi
  10204e:	54                   	push   %rsp
  10204f:	55                   	push   %rbp
  102050:	41 50                	push   %r8
  102052:	41 51                	push   %r9
  102054:	41 52                	push   %r10
  102056:	41 53                	push   %r11
  102058:	41 54                	push   %r12
  10205a:	41 55                	push   %r13
  10205c:	41 56                	push   %r14
  10205e:	41 57                	push   %r15
  102060:	9c                   	pushfq 
  102061:	bf 22 00 00 00       	mov    $0x22,%edi
  102066:	e8 ed 6c 00 00       	callq  108d58 <intr_handler>
  10206b:	9d                   	popfq  
  10206c:	41 5f                	pop    %r15
  10206e:	41 5e                	pop    %r14
  102070:	41 5d                	pop    %r13
  102072:	41 5c                	pop    %r12
  102074:	41 5b                	pop    %r11
  102076:	41 5a                	pop    %r10
  102078:	41 59                	pop    %r9
  10207a:	41 58                	pop    %r8
  10207c:	5d                   	pop    %rbp
  10207d:	48 83 c4 08          	add    $0x8,%rsp
  102081:	5e                   	pop    %rsi
  102082:	5f                   	pop    %rdi
  102083:	5a                   	pop    %rdx
  102084:	59                   	pop    %rcx
  102085:	5b                   	pop    %rbx
  102086:	58                   	pop    %rax
  102087:	48 89 6c 24 38       	mov    %rbp,0x38(%rsp)
  10208c:	48 cf                	iretq  

000000000010208e <intr_handler_35>:
  10208e:	55                   	push   %rbp
  10208f:	48 89 e5             	mov    %rsp,%rbp
  102092:	50                   	push   %rax
  102093:	53                   	push   %rbx
  102094:	51                   	push   %rcx
  102095:	52                   	push   %rdx
  102096:	57                   	push   %rdi
  102097:	56                   	push   %rsi
  102098:	54                   	push   %rsp
  102099:	55                   	push   %rbp
  10209a:	41 50                	push   %r8
  10209c:	41 51                	push   %r9
  10209e:	41 52                	push   %r10
  1020a0:	41 53                	push   %r11
  1020a2:	41 54                	push   %r12
  1020a4:	41 55                	push   %r13
  1020a6:	41 56                	push   %r14
  1020a8:	41 57                	push   %r15
  1020aa:	9c                   	pushfq 
  1020ab:	bf 23 00 00 00       	mov    $0x23,%edi
  1020b0:	e8 a3 6c 00 00       	callq  108d58 <intr_handler>
  1020b5:	9d                   	popfq  
  1020b6:	41 5f                	pop    %r15
  1020b8:	41 5e                	pop    %r14
  1020ba:	41 5d                	pop    %r13
  1020bc:	41 5c                	pop    %r12
  1020be:	41 5b                	pop    %r11
  1020c0:	41 5a                	pop    %r10
  1020c2:	41 59                	pop    %r9
  1020c4:	41 58                	pop    %r8
  1020c6:	5d                   	pop    %rbp
  1020c7:	48 83 c4 08          	add    $0x8,%rsp
  1020cb:	5e                   	pop    %rsi
  1020cc:	5f                   	pop    %rdi
  1020cd:	5a                   	pop    %rdx
  1020ce:	59                   	pop    %rcx
  1020cf:	5b                   	pop    %rbx
  1020d0:	58                   	pop    %rax
  1020d1:	48 89 6c 24 38       	mov    %rbp,0x38(%rsp)
  1020d6:	48 cf                	iretq  

00000000001020d8 <intr_handler_36>:
  1020d8:	55                   	push   %rbp
  1020d9:	48 89 e5             	mov    %rsp,%rbp
  1020dc:	50                   	push   %rax
  1020dd:	53                   	push   %rbx
  1020de:	51                   	push   %rcx
  1020df:	52                   	push   %rdx
  1020e0:	57                   	push   %rdi
  1020e1:	56                   	push   %rsi
  1020e2:	54                   	push   %rsp
  1020e3:	55                   	push   %rbp
  1020e4:	41 50                	push   %r8
  1020e6:	41 51                	push   %r9
  1020e8:	41 52                	push   %r10
  1020ea:	41 53                	push   %r11
  1020ec:	41 54                	push   %r12
  1020ee:	41 55                	push   %r13
  1020f0:	41 56                	push   %r14
  1020f2:	41 57                	push   %r15
  1020f4:	9c                   	pushfq 
  1020f5:	bf 24 00 00 00       	mov    $0x24,%edi
  1020fa:	e8 59 6c 00 00       	callq  108d58 <intr_handler>
  1020ff:	9d                   	popfq  
  102100:	41 5f                	pop    %r15
  102102:	41 5e                	pop    %r14
  102104:	41 5d                	pop    %r13
  102106:	41 5c                	pop    %r12
  102108:	41 5b                	pop    %r11
  10210a:	41 5a                	pop    %r10
  10210c:	41 59                	pop    %r9
  10210e:	41 58                	pop    %r8
  102110:	5d                   	pop    %rbp
  102111:	48 83 c4 08          	add    $0x8,%rsp
  102115:	5e                   	pop    %rsi
  102116:	5f                   	pop    %rdi
  102117:	5a                   	pop    %rdx
  102118:	59                   	pop    %rcx
  102119:	5b                   	pop    %rbx
  10211a:	58                   	pop    %rax
  10211b:	48 89 6c 24 38       	mov    %rbp,0x38(%rsp)
  102120:	48 cf                	iretq  

0000000000102122 <intr_handler_37>:
  102122:	55                   	push   %rbp
  102123:	48 89 e5             	mov    %rsp,%rbp
  102126:	50                   	push   %rax
  102127:	53                   	push   %rbx
  102128:	51                   	push   %rcx
  102129:	52                   	push   %rdx
  10212a:	57                   	push   %rdi
  10212b:	56                   	push   %rsi
  10212c:	54                   	push   %rsp
  10212d:	55                   	push   %rbp
  10212e:	41 50                	push   %r8
  102130:	41 51                	push   %r9
  102132:	41 52                	push   %r10
  102134:	41 53                	push   %r11
  102136:	41 54                	push   %r12
  102138:	41 55                	push   %r13
  10213a:	41 56                	push   %r14
  10213c:	41 57                	push   %r15
  10213e:	9c                   	pushfq 
  10213f:	bf 25 00 00 00       	mov    $0x25,%edi
  102144:	e8 0f 6c 00 00       	callq  108d58 <intr_handler>
  102149:	9d                   	popfq  
  10214a:	41 5f                	pop    %r15
  10214c:	41 5e                	pop    %r14
  10214e:	41 5d                	pop    %r13
  102150:	41 5c                	pop    %r12
  102152:	41 5b                	pop    %r11
  102154:	41 5a                	pop    %r10
  102156:	41 59                	pop    %r9
  102158:	41 58                	pop    %r8
  10215a:	5d                   	pop    %rbp
  10215b:	48 83 c4 08          	add    $0x8,%rsp
  10215f:	5e                   	pop    %rsi
  102160:	5f                   	pop    %rdi
  102161:	5a                   	pop    %rdx
  102162:	59                   	pop    %rcx
  102163:	5b                   	pop    %rbx
  102164:	58                   	pop    %rax
  102165:	48 89 6c 24 38       	mov    %rbp,0x38(%rsp)
  10216a:	48 cf                	iretq  

000000000010216c <intr_handler_38>:
  10216c:	55                   	push   %rbp
  10216d:	48 89 e5             	mov    %rsp,%rbp
  102170:	50                   	push   %rax
  102171:	53                   	push   %rbx
  102172:	51                   	push   %rcx
  102173:	52                   	push   %rdx
  102174:	57                   	push   %rdi
  102175:	56                   	push   %rsi
  102176:	54                   	push   %rsp
  102177:	55                   	push   %rbp
  102178:	41 50                	push   %r8
  10217a:	41 51                	push   %r9
  10217c:	41 52                	push   %r10
  10217e:	41 53                	push   %r11
  102180:	41 54                	push   %r12
  102182:	41 55                	push   %r13
  102184:	41 56                	push   %r14
  102186:	41 57                	push   %r15
  102188:	9c                   	pushfq 
  102189:	bf 26 00 00 00       	mov    $0x26,%edi
  10218e:	e8 c5 6b 00 00       	callq  108d58 <intr_handler>
  102193:	9d                   	popfq  
  102194:	41 5f                	pop    %r15
  102196:	41 5e                	pop    %r14
  102198:	41 5d                	pop    %r13
  10219a:	41 5c                	pop    %r12
  10219c:	41 5b                	pop    %r11
  10219e:	41 5a                	pop    %r10
  1021a0:	41 59                	pop    %r9
  1021a2:	41 58                	pop    %r8
  1021a4:	5d                   	pop    %rbp
  1021a5:	48 83 c4 08          	add    $0x8,%rsp
  1021a9:	5e                   	pop    %rsi
  1021aa:	5f                   	pop    %rdi
  1021ab:	5a                   	pop    %rdx
  1021ac:	59                   	pop    %rcx
  1021ad:	5b                   	pop    %rbx
  1021ae:	58                   	pop    %rax
  1021af:	48 89 6c 24 38       	mov    %rbp,0x38(%rsp)
  1021b4:	48 cf                	iretq  

00000000001021b6 <intr_handler_39>:
  1021b6:	55                   	push   %rbp
  1021b7:	48 89 e5             	mov    %rsp,%rbp
  1021ba:	50                   	push   %rax
  1021bb:	53                   	push   %rbx
  1021bc:	51                   	push   %rcx
  1021bd:	52                   	push   %rdx
  1021be:	57                   	push   %rdi
  1021bf:	56                   	push   %rsi
  1021c0:	54                   	push   %rsp
  1021c1:	55                   	push   %rbp
  1021c2:	41 50                	push   %r8
  1021c4:	41 51                	push   %r9
  1021c6:	41 52                	push   %r10
  1021c8:	41 53                	push   %r11
  1021ca:	41 54                	push   %r12
  1021cc:	41 55                	push   %r13
  1021ce:	41 56                	push   %r14
  1021d0:	41 57                	push   %r15
  1021d2:	9c                   	pushfq 
  1021d3:	bf 27 00 00 00       	mov    $0x27,%edi
  1021d8:	e8 7b 6b 00 00       	callq  108d58 <intr_handler>
  1021dd:	9d                   	popfq  
  1021de:	41 5f                	pop    %r15
  1021e0:	41 5e                	pop    %r14
  1021e2:	41 5d                	pop    %r13
  1021e4:	41 5c                	pop    %r12
  1021e6:	41 5b                	pop    %r11
  1021e8:	41 5a                	pop    %r10
  1021ea:	41 59                	pop    %r9
  1021ec:	41 58                	pop    %r8
  1021ee:	5d                   	pop    %rbp
  1021ef:	48 83 c4 08          	add    $0x8,%rsp
  1021f3:	5e                   	pop    %rsi
  1021f4:	5f                   	pop    %rdi
  1021f5:	5a                   	pop    %rdx
  1021f6:	59                   	pop    %rcx
  1021f7:	5b                   	pop    %rbx
  1021f8:	58                   	pop    %rax
  1021f9:	48 89 6c 24 38       	mov    %rbp,0x38(%rsp)
  1021fe:	48 cf                	iretq  

0000000000102200 <intr_handler_40>:
  102200:	55                   	push   %rbp
  102201:	48 89 e5             	mov    %rsp,%rbp
  102204:	50                   	push   %rax
  102205:	53                   	push   %rbx
  102206:	51                   	push   %rcx
  102207:	52                   	push   %rdx
  102208:	57                   	push   %rdi
  102209:	56                   	push   %rsi
  10220a:	54                   	push   %rsp
  10220b:	55                   	push   %rbp
  10220c:	41 50                	push   %r8
  10220e:	41 51                	push   %r9
  102210:	41 52                	push   %r10
  102212:	41 53                	push   %r11
  102214:	41 54                	push   %r12
  102216:	41 55                	push   %r13
  102218:	41 56                	push   %r14
  10221a:	41 57                	push   %r15
  10221c:	9c                   	pushfq 
  10221d:	bf 28 00 00 00       	mov    $0x28,%edi
  102222:	e8 31 6b 00 00       	callq  108d58 <intr_handler>
  102227:	9d                   	popfq  
  102228:	41 5f                	pop    %r15
  10222a:	41 5e                	pop    %r14
  10222c:	41 5d                	pop    %r13
  10222e:	41 5c                	pop    %r12
  102230:	41 5b                	pop    %r11
  102232:	41 5a                	pop    %r10
  102234:	41 59                	pop    %r9
  102236:	41 58                	pop    %r8
  102238:	5d                   	pop    %rbp
  102239:	48 83 c4 08          	add    $0x8,%rsp
  10223d:	5e                   	pop    %rsi
  10223e:	5f                   	pop    %rdi
  10223f:	5a                   	pop    %rdx
  102240:	59                   	pop    %rcx
  102241:	5b                   	pop    %rbx
  102242:	58                   	pop    %rax
  102243:	48 89 6c 24 38       	mov    %rbp,0x38(%rsp)
  102248:	48 cf                	iretq  

000000000010224a <intr_handler_41>:
  10224a:	55                   	push   %rbp
  10224b:	48 89 e5             	mov    %rsp,%rbp
  10224e:	50                   	push   %rax
  10224f:	53                   	push   %rbx
  102250:	51                   	push   %rcx
  102251:	52                   	push   %rdx
  102252:	57                   	push   %rdi
  102253:	56                   	push   %rsi
  102254:	54                   	push   %rsp
  102255:	55                   	push   %rbp
  102256:	41 50                	push   %r8
  102258:	41 51                	push   %r9
  10225a:	41 52                	push   %r10
  10225c:	41 53                	push   %r11
  10225e:	41 54                	push   %r12
  102260:	41 55                	push   %r13
  102262:	41 56                	push   %r14
  102264:	41 57                	push   %r15
  102266:	9c                   	pushfq 
  102267:	bf 29 00 00 00       	mov    $0x29,%edi
  10226c:	e8 e7 6a 00 00       	callq  108d58 <intr_handler>
  102271:	9d                   	popfq  
  102272:	41 5f                	pop    %r15
  102274:	41 5e                	pop    %r14
  102276:	41 5d                	pop    %r13
  102278:	41 5c                	pop    %r12
  10227a:	41 5b                	pop    %r11
  10227c:	41 5a                	pop    %r10
  10227e:	41 59                	pop    %r9
  102280:	41 58                	pop    %r8
  102282:	5d                   	pop    %rbp
  102283:	48 83 c4 08          	add    $0x8,%rsp
  102287:	5e                   	pop    %rsi
  102288:	5f                   	pop    %rdi
  102289:	5a                   	pop    %rdx
  10228a:	59                   	pop    %rcx
  10228b:	5b                   	pop    %rbx
  10228c:	58                   	pop    %rax
  10228d:	48 89 6c 24 38       	mov    %rbp,0x38(%rsp)
  102292:	48 cf                	iretq  

0000000000102294 <intr_handler_42>:
  102294:	55                   	push   %rbp
  102295:	48 89 e5             	mov    %rsp,%rbp
  102298:	50                   	push   %rax
  102299:	53                   	push   %rbx
  10229a:	51                   	push   %rcx
  10229b:	52                   	push   %rdx
  10229c:	57                   	push   %rdi
  10229d:	56                   	push   %rsi
  10229e:	54                   	push   %rsp
  10229f:	55                   	push   %rbp
  1022a0:	41 50                	push   %r8
  1022a2:	41 51                	push   %r9
  1022a4:	41 52                	push   %r10
  1022a6:	41 53                	push   %r11
  1022a8:	41 54                	push   %r12
  1022aa:	41 55                	push   %r13
  1022ac:	41 56                	push   %r14
  1022ae:	41 57                	push   %r15
  1022b0:	9c                   	pushfq 
  1022b1:	bf 2a 00 00 00       	mov    $0x2a,%edi
  1022b6:	e8 9d 6a 00 00       	callq  108d58 <intr_handler>
  1022bb:	9d                   	popfq  
  1022bc:	41 5f                	pop    %r15
  1022be:	41 5e                	pop    %r14
  1022c0:	41 5d                	pop    %r13
  1022c2:	41 5c                	pop    %r12
  1022c4:	41 5b                	pop    %r11
  1022c6:	41 5a                	pop    %r10
  1022c8:	41 59                	pop    %r9
  1022ca:	41 58                	pop    %r8
  1022cc:	5d                   	pop    %rbp
  1022cd:	48 83 c4 08          	add    $0x8,%rsp
  1022d1:	5e                   	pop    %rsi
  1022d2:	5f                   	pop    %rdi
  1022d3:	5a                   	pop    %rdx
  1022d4:	59                   	pop    %rcx
  1022d5:	5b                   	pop    %rbx
  1022d6:	58                   	pop    %rax
  1022d7:	48 89 6c 24 38       	mov    %rbp,0x38(%rsp)
  1022dc:	48 cf                	iretq  

00000000001022de <intr_handler_43>:
  1022de:	55                   	push   %rbp
  1022df:	48 89 e5             	mov    %rsp,%rbp
  1022e2:	50                   	push   %rax
  1022e3:	53                   	push   %rbx
  1022e4:	51                   	push   %rcx
  1022e5:	52                   	push   %rdx
  1022e6:	57                   	push   %rdi
  1022e7:	56                   	push   %rsi
  1022e8:	54                   	push   %rsp
  1022e9:	55                   	push   %rbp
  1022ea:	41 50                	push   %r8
  1022ec:	41 51                	push   %r9
  1022ee:	41 52                	push   %r10
  1022f0:	41 53                	push   %r11
  1022f2:	41 54                	push   %r12
  1022f4:	41 55                	push   %r13
  1022f6:	41 56                	push   %r14
  1022f8:	41 57                	push   %r15
  1022fa:	9c                   	pushfq 
  1022fb:	bf 2b 00 00 00       	mov    $0x2b,%edi
  102300:	e8 53 6a 00 00       	callq  108d58 <intr_handler>
  102305:	9d                   	popfq  
  102306:	41 5f                	pop    %r15
  102308:	41 5e                	pop    %r14
  10230a:	41 5d                	pop    %r13
  10230c:	41 5c                	pop    %r12
  10230e:	41 5b                	pop    %r11
  102310:	41 5a                	pop    %r10
  102312:	41 59                	pop    %r9
  102314:	41 58                	pop    %r8
  102316:	5d                   	pop    %rbp
  102317:	48 83 c4 08          	add    $0x8,%rsp
  10231b:	5e                   	pop    %rsi
  10231c:	5f                   	pop    %rdi
  10231d:	5a                   	pop    %rdx
  10231e:	59                   	pop    %rcx
  10231f:	5b                   	pop    %rbx
  102320:	58                   	pop    %rax
  102321:	48 89 6c 24 38       	mov    %rbp,0x38(%rsp)
  102326:	48 cf                	iretq  

0000000000102328 <intr_handler_44>:
  102328:	55                   	push   %rbp
  102329:	48 89 e5             	mov    %rsp,%rbp
  10232c:	50                   	push   %rax
  10232d:	53                   	push   %rbx
  10232e:	51                   	push   %rcx
  10232f:	52                   	push   %rdx
  102330:	57                   	push   %rdi
  102331:	56                   	push   %rsi
  102332:	54                   	push   %rsp
  102333:	55                   	push   %rbp
  102334:	41 50                	push   %r8
  102336:	41 51                	push   %r9
  102338:	41 52                	push   %r10
  10233a:	41 53                	push   %r11
  10233c:	41 54                	push   %r12
  10233e:	41 55                	push   %r13
  102340:	41 56                	push   %r14
  102342:	41 57                	push   %r15
  102344:	9c                   	pushfq 
  102345:	bf 2c 00 00 00       	mov    $0x2c,%edi
  10234a:	e8 09 6a 00 00       	callq  108d58 <intr_handler>
  10234f:	9d                   	popfq  
  102350:	41 5f                	pop    %r15
  102352:	41 5e                	pop    %r14
  102354:	41 5d                	pop    %r13
  102356:	41 5c                	pop    %r12
  102358:	41 5b                	pop    %r11
  10235a:	41 5a                	pop    %r10
  10235c:	41 59                	pop    %r9
  10235e:	41 58                	pop    %r8
  102360:	5d                   	pop    %rbp
  102361:	48 83 c4 08          	add    $0x8,%rsp
  102365:	5e                   	pop    %rsi
  102366:	5f                   	pop    %rdi
  102367:	5a                   	pop    %rdx
  102368:	59                   	pop    %rcx
  102369:	5b                   	pop    %rbx
  10236a:	58                   	pop    %rax
  10236b:	48 89 6c 24 38       	mov    %rbp,0x38(%rsp)
  102370:	48 cf                	iretq  

0000000000102372 <intr_handler_45>:
  102372:	55                   	push   %rbp
  102373:	48 89 e5             	mov    %rsp,%rbp
  102376:	50                   	push   %rax
  102377:	53                   	push   %rbx
  102378:	51                   	push   %rcx
  102379:	52                   	push   %rdx
  10237a:	57                   	push   %rdi
  10237b:	56                   	push   %rsi
  10237c:	54                   	push   %rsp
  10237d:	55                   	push   %rbp
  10237e:	41 50                	push   %r8
  102380:	41 51                	push   %r9
  102382:	41 52                	push   %r10
  102384:	41 53                	push   %r11
  102386:	41 54                	push   %r12
  102388:	41 55                	push   %r13
  10238a:	41 56                	push   %r14
  10238c:	41 57                	push   %r15
  10238e:	9c                   	pushfq 
  10238f:	bf 2d 00 00 00       	mov    $0x2d,%edi
  102394:	e8 bf 69 00 00       	callq  108d58 <intr_handler>
  102399:	9d                   	popfq  
  10239a:	41 5f                	pop    %r15
  10239c:	41 5e                	pop    %r14
  10239e:	41 5d                	pop    %r13
  1023a0:	41 5c                	pop    %r12
  1023a2:	41 5b                	pop    %r11
  1023a4:	41 5a                	pop    %r10
  1023a6:	41 59                	pop    %r9
  1023a8:	41 58                	pop    %r8
  1023aa:	5d                   	pop    %rbp
  1023ab:	48 83 c4 08          	add    $0x8,%rsp
  1023af:	5e                   	pop    %rsi
  1023b0:	5f                   	pop    %rdi
  1023b1:	5a                   	pop    %rdx
  1023b2:	59                   	pop    %rcx
  1023b3:	5b                   	pop    %rbx
  1023b4:	58                   	pop    %rax
  1023b5:	48 89 6c 24 38       	mov    %rbp,0x38(%rsp)
  1023ba:	48 cf                	iretq  

00000000001023bc <intr_handler_46>:
  1023bc:	55                   	push   %rbp
  1023bd:	48 89 e5             	mov    %rsp,%rbp
  1023c0:	50                   	push   %rax
  1023c1:	53                   	push   %rbx
  1023c2:	51                   	push   %rcx
  1023c3:	52                   	push   %rdx
  1023c4:	57                   	push   %rdi
  1023c5:	56                   	push   %rsi
  1023c6:	54                   	push   %rsp
  1023c7:	55                   	push   %rbp
  1023c8:	41 50                	push   %r8
  1023ca:	41 51                	push   %r9
  1023cc:	41 52                	push   %r10
  1023ce:	41 53                	push   %r11
  1023d0:	41 54                	push   %r12
  1023d2:	41 55                	push   %r13
  1023d4:	41 56                	push   %r14
  1023d6:	41 57                	push   %r15
  1023d8:	9c                   	pushfq 
  1023d9:	bf 2e 00 00 00       	mov    $0x2e,%edi
  1023de:	e8 75 69 00 00       	callq  108d58 <intr_handler>
  1023e3:	9d                   	popfq  
  1023e4:	41 5f                	pop    %r15
  1023e6:	41 5e                	pop    %r14
  1023e8:	41 5d                	pop    %r13
  1023ea:	41 5c                	pop    %r12
  1023ec:	41 5b                	pop    %r11
  1023ee:	41 5a                	pop    %r10
  1023f0:	41 59                	pop    %r9
  1023f2:	41 58                	pop    %r8
  1023f4:	5d                   	pop    %rbp
  1023f5:	48 83 c4 08          	add    $0x8,%rsp
  1023f9:	5e                   	pop    %rsi
  1023fa:	5f                   	pop    %rdi
  1023fb:	5a                   	pop    %rdx
  1023fc:	59                   	pop    %rcx
  1023fd:	5b                   	pop    %rbx
  1023fe:	58                   	pop    %rax
  1023ff:	48 89 6c 24 38       	mov    %rbp,0x38(%rsp)
  102404:	48 cf                	iretq  

0000000000102406 <intr_handler_47>:
  102406:	55                   	push   %rbp
  102407:	48 89 e5             	mov    %rsp,%rbp
  10240a:	50                   	push   %rax
  10240b:	53                   	push   %rbx
  10240c:	51                   	push   %rcx
  10240d:	52                   	push   %rdx
  10240e:	57                   	push   %rdi
  10240f:	56                   	push   %rsi
  102410:	54                   	push   %rsp
  102411:	55                   	push   %rbp
  102412:	41 50                	push   %r8
  102414:	41 51                	push   %r9
  102416:	41 52                	push   %r10
  102418:	41 53                	push   %r11
  10241a:	41 54                	push   %r12
  10241c:	41 55                	push   %r13
  10241e:	41 56                	push   %r14
  102420:	41 57                	push   %r15
  102422:	9c                   	pushfq 
  102423:	bf 2f 00 00 00       	mov    $0x2f,%edi
  102428:	e8 2b 69 00 00       	callq  108d58 <intr_handler>
  10242d:	9d                   	popfq  
  10242e:	41 5f                	pop    %r15
  102430:	41 5e                	pop    %r14
  102432:	41 5d                	pop    %r13
  102434:	41 5c                	pop    %r12
  102436:	41 5b                	pop    %r11
  102438:	41 5a                	pop    %r10
  10243a:	41 59                	pop    %r9
  10243c:	41 58                	pop    %r8
  10243e:	5d                   	pop    %rbp
  10243f:	48 83 c4 08          	add    $0x8,%rsp
  102443:	5e                   	pop    %rsi
  102444:	5f                   	pop    %rdi
  102445:	5a                   	pop    %rdx
  102446:	59                   	pop    %rcx
  102447:	5b                   	pop    %rbx
  102448:	58                   	pop    %rax
  102449:	48 89 6c 24 38       	mov    %rbp,0x38(%rsp)
  10244e:	48 cf                	iretq  

0000000000102450 <intr_handler_48>:
  102450:	55                   	push   %rbp
  102451:	48 89 e5             	mov    %rsp,%rbp
  102454:	50                   	push   %rax
  102455:	53                   	push   %rbx
  102456:	51                   	push   %rcx
  102457:	52                   	push   %rdx
  102458:	57                   	push   %rdi
  102459:	56                   	push   %rsi
  10245a:	54                   	push   %rsp
  10245b:	55                   	push   %rbp
  10245c:	41 50                	push   %r8
  10245e:	41 51                	push   %r9
  102460:	41 52                	push   %r10
  102462:	41 53                	push   %r11
  102464:	41 54                	push   %r12
  102466:	41 55                	push   %r13
  102468:	41 56                	push   %r14
  10246a:	41 57                	push   %r15
  10246c:	9c                   	pushfq 
  10246d:	bf 30 00 00 00       	mov    $0x30,%edi
  102472:	e8 e1 68 00 00       	callq  108d58 <intr_handler>
  102477:	9d                   	popfq  
  102478:	41 5f                	pop    %r15
  10247a:	41 5e                	pop    %r14
  10247c:	41 5d                	pop    %r13
  10247e:	41 5c                	pop    %r12
  102480:	41 5b                	pop    %r11
  102482:	41 5a                	pop    %r10
  102484:	41 59                	pop    %r9
  102486:	41 58                	pop    %r8
  102488:	5d                   	pop    %rbp
  102489:	48 83 c4 08          	add    $0x8,%rsp
  10248d:	5e                   	pop    %rsi
  10248e:	5f                   	pop    %rdi
  10248f:	5a                   	pop    %rdx
  102490:	59                   	pop    %rcx
  102491:	5b                   	pop    %rbx
  102492:	58                   	pop    %rax
  102493:	48 89 6c 24 38       	mov    %rbp,0x38(%rsp)
  102498:	48 cf                	iretq  

000000000010249a <intr_handler_49>:
  10249a:	55                   	push   %rbp
  10249b:	48 89 e5             	mov    %rsp,%rbp
  10249e:	50                   	push   %rax
  10249f:	53                   	push   %rbx
  1024a0:	51                   	push   %rcx
  1024a1:	52                   	push   %rdx
  1024a2:	57                   	push   %rdi
  1024a3:	56                   	push   %rsi
  1024a4:	54                   	push   %rsp
  1024a5:	55                   	push   %rbp
  1024a6:	41 50                	push   %r8
  1024a8:	41 51                	push   %r9
  1024aa:	41 52                	push   %r10
  1024ac:	41 53                	push   %r11
  1024ae:	41 54                	push   %r12
  1024b0:	41 55                	push   %r13
  1024b2:	41 56                	push   %r14
  1024b4:	41 57                	push   %r15
  1024b6:	9c                   	pushfq 
  1024b7:	bf 31 00 00 00       	mov    $0x31,%edi
  1024bc:	e8 97 68 00 00       	callq  108d58 <intr_handler>
  1024c1:	9d                   	popfq  
  1024c2:	41 5f                	pop    %r15
  1024c4:	41 5e                	pop    %r14
  1024c6:	41 5d                	pop    %r13
  1024c8:	41 5c                	pop    %r12
  1024ca:	41 5b                	pop    %r11
  1024cc:	41 5a                	pop    %r10
  1024ce:	41 59                	pop    %r9
  1024d0:	41 58                	pop    %r8
  1024d2:	5d                   	pop    %rbp
  1024d3:	48 83 c4 08          	add    $0x8,%rsp
  1024d7:	5e                   	pop    %rsi
  1024d8:	5f                   	pop    %rdi
  1024d9:	5a                   	pop    %rdx
  1024da:	59                   	pop    %rcx
  1024db:	5b                   	pop    %rbx
  1024dc:	58                   	pop    %rax
  1024dd:	48 89 6c 24 38       	mov    %rbp,0x38(%rsp)
  1024e2:	48 cf                	iretq  

00000000001024e4 <intr_handler_50>:
  1024e4:	55                   	push   %rbp
  1024e5:	48 89 e5             	mov    %rsp,%rbp
  1024e8:	50                   	push   %rax
  1024e9:	53                   	push   %rbx
  1024ea:	51                   	push   %rcx
  1024eb:	52                   	push   %rdx
  1024ec:	57                   	push   %rdi
  1024ed:	56                   	push   %rsi
  1024ee:	54                   	push   %rsp
  1024ef:	55                   	push   %rbp
  1024f0:	41 50                	push   %r8
  1024f2:	41 51                	push   %r9
  1024f4:	41 52                	push   %r10
  1024f6:	41 53                	push   %r11
  1024f8:	41 54                	push   %r12
  1024fa:	41 55                	push   %r13
  1024fc:	41 56                	push   %r14
  1024fe:	41 57                	push   %r15
  102500:	9c                   	pushfq 
  102501:	bf 32 00 00 00       	mov    $0x32,%edi
  102506:	e8 4d 68 00 00       	callq  108d58 <intr_handler>
  10250b:	9d                   	popfq  
  10250c:	41 5f                	pop    %r15
  10250e:	41 5e                	pop    %r14
  102510:	41 5d                	pop    %r13
  102512:	41 5c                	pop    %r12
  102514:	41 5b                	pop    %r11
  102516:	41 5a                	pop    %r10
  102518:	41 59                	pop    %r9
  10251a:	41 58                	pop    %r8
  10251c:	5d                   	pop    %rbp
  10251d:	48 83 c4 08          	add    $0x8,%rsp
  102521:	5e                   	pop    %rsi
  102522:	5f                   	pop    %rdi
  102523:	5a                   	pop    %rdx
  102524:	59                   	pop    %rcx
  102525:	5b                   	pop    %rbx
  102526:	58                   	pop    %rax
  102527:	48 89 6c 24 38       	mov    %rbp,0x38(%rsp)
  10252c:	48 cf                	iretq  

000000000010252e <intr_handler_51>:
  10252e:	55                   	push   %rbp
  10252f:	48 89 e5             	mov    %rsp,%rbp
  102532:	50                   	push   %rax
  102533:	53                   	push   %rbx
  102534:	51                   	push   %rcx
  102535:	52                   	push   %rdx
  102536:	57                   	push   %rdi
  102537:	56                   	push   %rsi
  102538:	54                   	push   %rsp
  102539:	55                   	push   %rbp
  10253a:	41 50                	push   %r8
  10253c:	41 51                	push   %r9
  10253e:	41 52                	push   %r10
  102540:	41 53                	push   %r11
  102542:	41 54                	push   %r12
  102544:	41 55                	push   %r13
  102546:	41 56                	push   %r14
  102548:	41 57                	push   %r15
  10254a:	9c                   	pushfq 
  10254b:	bf 33 00 00 00       	mov    $0x33,%edi
  102550:	e8 03 68 00 00       	callq  108d58 <intr_handler>
  102555:	9d                   	popfq  
  102556:	41 5f                	pop    %r15
  102558:	41 5e                	pop    %r14
  10255a:	41 5d                	pop    %r13
  10255c:	41 5c                	pop    %r12
  10255e:	41 5b                	pop    %r11
  102560:	41 5a                	pop    %r10
  102562:	41 59                	pop    %r9
  102564:	41 58                	pop    %r8
  102566:	5d                   	pop    %rbp
  102567:	48 83 c4 08          	add    $0x8,%rsp
  10256b:	5e                   	pop    %rsi
  10256c:	5f                   	pop    %rdi
  10256d:	5a                   	pop    %rdx
  10256e:	59                   	pop    %rcx
  10256f:	5b                   	pop    %rbx
  102570:	58                   	pop    %rax
  102571:	48 89 6c 24 38       	mov    %rbp,0x38(%rsp)
  102576:	48 cf                	iretq  

0000000000102578 <intr_handler_52>:
  102578:	55                   	push   %rbp
  102579:	48 89 e5             	mov    %rsp,%rbp
  10257c:	50                   	push   %rax
  10257d:	53                   	push   %rbx
  10257e:	51                   	push   %rcx
  10257f:	52                   	push   %rdx
  102580:	57                   	push   %rdi
  102581:	56                   	push   %rsi
  102582:	54                   	push   %rsp
  102583:	55                   	push   %rbp
  102584:	41 50                	push   %r8
  102586:	41 51                	push   %r9
  102588:	41 52                	push   %r10
  10258a:	41 53                	push   %r11
  10258c:	41 54                	push   %r12
  10258e:	41 55                	push   %r13
  102590:	41 56                	push   %r14
  102592:	41 57                	push   %r15
  102594:	9c                   	pushfq 
  102595:	bf 34 00 00 00       	mov    $0x34,%edi
  10259a:	e8 b9 67 00 00       	callq  108d58 <intr_handler>
  10259f:	9d                   	popfq  
  1025a0:	41 5f                	pop    %r15
  1025a2:	41 5e                	pop    %r14
  1025a4:	41 5d                	pop    %r13
  1025a6:	41 5c                	pop    %r12
  1025a8:	41 5b                	pop    %r11
  1025aa:	41 5a                	pop    %r10
  1025ac:	41 59                	pop    %r9
  1025ae:	41 58                	pop    %r8
  1025b0:	5d                   	pop    %rbp
  1025b1:	48 83 c4 08          	add    $0x8,%rsp
  1025b5:	5e                   	pop    %rsi
  1025b6:	5f                   	pop    %rdi
  1025b7:	5a                   	pop    %rdx
  1025b8:	59                   	pop    %rcx
  1025b9:	5b                   	pop    %rbx
  1025ba:	58                   	pop    %rax
  1025bb:	48 89 6c 24 38       	mov    %rbp,0x38(%rsp)
  1025c0:	48 cf                	iretq  

00000000001025c2 <intr_handler_53>:
  1025c2:	55                   	push   %rbp
  1025c3:	48 89 e5             	mov    %rsp,%rbp
  1025c6:	50                   	push   %rax
  1025c7:	53                   	push   %rbx
  1025c8:	51                   	push   %rcx
  1025c9:	52                   	push   %rdx
  1025ca:	57                   	push   %rdi
  1025cb:	56                   	push   %rsi
  1025cc:	54                   	push   %rsp
  1025cd:	55                   	push   %rbp
  1025ce:	41 50                	push   %r8
  1025d0:	41 51                	push   %r9
  1025d2:	41 52                	push   %r10
  1025d4:	41 53                	push   %r11
  1025d6:	41 54                	push   %r12
  1025d8:	41 55                	push   %r13
  1025da:	41 56                	push   %r14
  1025dc:	41 57                	push   %r15
  1025de:	9c                   	pushfq 
  1025df:	bf 35 00 00 00       	mov    $0x35,%edi
  1025e4:	e8 6f 67 00 00       	callq  108d58 <intr_handler>
  1025e9:	9d                   	popfq  
  1025ea:	41 5f                	pop    %r15
  1025ec:	41 5e                	pop    %r14
  1025ee:	41 5d                	pop    %r13
  1025f0:	41 5c                	pop    %r12
  1025f2:	41 5b                	pop    %r11
  1025f4:	41 5a                	pop    %r10
  1025f6:	41 59                	pop    %r9
  1025f8:	41 58                	pop    %r8
  1025fa:	5d                   	pop    %rbp
  1025fb:	48 83 c4 08          	add    $0x8,%rsp
  1025ff:	5e                   	pop    %rsi
  102600:	5f                   	pop    %rdi
  102601:	5a                   	pop    %rdx
  102602:	59                   	pop    %rcx
  102603:	5b                   	pop    %rbx
  102604:	58                   	pop    %rax
  102605:	48 89 6c 24 38       	mov    %rbp,0x38(%rsp)
  10260a:	48 cf                	iretq  

000000000010260c <intr_handler_54>:
  10260c:	55                   	push   %rbp
  10260d:	48 89 e5             	mov    %rsp,%rbp
  102610:	50                   	push   %rax
  102611:	53                   	push   %rbx
  102612:	51                   	push   %rcx
  102613:	52                   	push   %rdx
  102614:	57                   	push   %rdi
  102615:	56                   	push   %rsi
  102616:	54                   	push   %rsp
  102617:	55                   	push   %rbp
  102618:	41 50                	push   %r8
  10261a:	41 51                	push   %r9
  10261c:	41 52                	push   %r10
  10261e:	41 53                	push   %r11
  102620:	41 54                	push   %r12
  102622:	41 55                	push   %r13
  102624:	41 56                	push   %r14
  102626:	41 57                	push   %r15
  102628:	9c                   	pushfq 
  102629:	bf 36 00 00 00       	mov    $0x36,%edi
  10262e:	e8 25 67 00 00       	callq  108d58 <intr_handler>
  102633:	9d                   	popfq  
  102634:	41 5f                	pop    %r15
  102636:	41 5e                	pop    %r14
  102638:	41 5d                	pop    %r13
  10263a:	41 5c                	pop    %r12
  10263c:	41 5b                	pop    %r11
  10263e:	41 5a                	pop    %r10
  102640:	41 59                	pop    %r9
  102642:	41 58                	pop    %r8
  102644:	5d                   	pop    %rbp
  102645:	48 83 c4 08          	add    $0x8,%rsp
  102649:	5e                   	pop    %rsi
  10264a:	5f                   	pop    %rdi
  10264b:	5a                   	pop    %rdx
  10264c:	59                   	pop    %rcx
  10264d:	5b                   	pop    %rbx
  10264e:	58                   	pop    %rax
  10264f:	48 89 6c 24 38       	mov    %rbp,0x38(%rsp)
  102654:	48 cf                	iretq  

0000000000102656 <intr_handler_55>:
  102656:	55                   	push   %rbp
  102657:	48 89 e5             	mov    %rsp,%rbp
  10265a:	50                   	push   %rax
  10265b:	53                   	push   %rbx
  10265c:	51                   	push   %rcx
  10265d:	52                   	push   %rdx
  10265e:	57                   	push   %rdi
  10265f:	56                   	push   %rsi
  102660:	54                   	push   %rsp
  102661:	55                   	push   %rbp
  102662:	41 50                	push   %r8
  102664:	41 51                	push   %r9
  102666:	41 52                	push   %r10
  102668:	41 53                	push   %r11
  10266a:	41 54                	push   %r12
  10266c:	41 55                	push   %r13
  10266e:	41 56                	push   %r14
  102670:	41 57                	push   %r15
  102672:	9c                   	pushfq 
  102673:	bf 37 00 00 00       	mov    $0x37,%edi
  102678:	e8 db 66 00 00       	callq  108d58 <intr_handler>
  10267d:	9d                   	popfq  
  10267e:	41 5f                	pop    %r15
  102680:	41 5e                	pop    %r14
  102682:	41 5d                	pop    %r13
  102684:	41 5c                	pop    %r12
  102686:	41 5b                	pop    %r11
  102688:	41 5a                	pop    %r10
  10268a:	41 59                	pop    %r9
  10268c:	41 58                	pop    %r8
  10268e:	5d                   	pop    %rbp
  10268f:	48 83 c4 08          	add    $0x8,%rsp
  102693:	5e                   	pop    %rsi
  102694:	5f                   	pop    %rdi
  102695:	5a                   	pop    %rdx
  102696:	59                   	pop    %rcx
  102697:	5b                   	pop    %rbx
  102698:	58                   	pop    %rax
  102699:	48 89 6c 24 38       	mov    %rbp,0x38(%rsp)
  10269e:	48 cf                	iretq  

00000000001026a0 <intr_handler_56>:
  1026a0:	55                   	push   %rbp
  1026a1:	48 89 e5             	mov    %rsp,%rbp
  1026a4:	50                   	push   %rax
  1026a5:	53                   	push   %rbx
  1026a6:	51                   	push   %rcx
  1026a7:	52                   	push   %rdx
  1026a8:	57                   	push   %rdi
  1026a9:	56                   	push   %rsi
  1026aa:	54                   	push   %rsp
  1026ab:	55                   	push   %rbp
  1026ac:	41 50                	push   %r8
  1026ae:	41 51                	push   %r9
  1026b0:	41 52                	push   %r10
  1026b2:	41 53                	push   %r11
  1026b4:	41 54                	push   %r12
  1026b6:	41 55                	push   %r13
  1026b8:	41 56                	push   %r14
  1026ba:	41 57                	push   %r15
  1026bc:	9c                   	pushfq 
  1026bd:	bf 38 00 00 00       	mov    $0x38,%edi
  1026c2:	e8 91 66 00 00       	callq  108d58 <intr_handler>
  1026c7:	9d                   	popfq  
  1026c8:	41 5f                	pop    %r15
  1026ca:	41 5e                	pop    %r14
  1026cc:	41 5d                	pop    %r13
  1026ce:	41 5c                	pop    %r12
  1026d0:	41 5b                	pop    %r11
  1026d2:	41 5a                	pop    %r10
  1026d4:	41 59                	pop    %r9
  1026d6:	41 58                	pop    %r8
  1026d8:	5d                   	pop    %rbp
  1026d9:	48 83 c4 08          	add    $0x8,%rsp
  1026dd:	5e                   	pop    %rsi
  1026de:	5f                   	pop    %rdi
  1026df:	5a                   	pop    %rdx
  1026e0:	59                   	pop    %rcx
  1026e1:	5b                   	pop    %rbx
  1026e2:	58                   	pop    %rax
  1026e3:	48 89 6c 24 38       	mov    %rbp,0x38(%rsp)
  1026e8:	48 cf                	iretq  

00000000001026ea <intr_handler_57>:
  1026ea:	55                   	push   %rbp
  1026eb:	48 89 e5             	mov    %rsp,%rbp
  1026ee:	50                   	push   %rax
  1026ef:	53                   	push   %rbx
  1026f0:	51                   	push   %rcx
  1026f1:	52                   	push   %rdx
  1026f2:	57                   	push   %rdi
  1026f3:	56                   	push   %rsi
  1026f4:	54                   	push   %rsp
  1026f5:	55                   	push   %rbp
  1026f6:	41 50                	push   %r8
  1026f8:	41 51                	push   %r9
  1026fa:	41 52                	push   %r10
  1026fc:	41 53                	push   %r11
  1026fe:	41 54                	push   %r12
  102700:	41 55                	push   %r13
  102702:	41 56                	push   %r14
  102704:	41 57                	push   %r15
  102706:	9c                   	pushfq 
  102707:	bf 39 00 00 00       	mov    $0x39,%edi
  10270c:	e8 47 66 00 00       	callq  108d58 <intr_handler>
  102711:	9d                   	popfq  
  102712:	41 5f                	pop    %r15
  102714:	41 5e                	pop    %r14
  102716:	41 5d                	pop    %r13
  102718:	41 5c                	pop    %r12
  10271a:	41 5b                	pop    %r11
  10271c:	41 5a                	pop    %r10
  10271e:	41 59                	pop    %r9
  102720:	41 58                	pop    %r8
  102722:	5d                   	pop    %rbp
  102723:	48 83 c4 08          	add    $0x8,%rsp
  102727:	5e                   	pop    %rsi
  102728:	5f                   	pop    %rdi
  102729:	5a                   	pop    %rdx
  10272a:	59                   	pop    %rcx
  10272b:	5b                   	pop    %rbx
  10272c:	58                   	pop    %rax
  10272d:	48 89 6c 24 38       	mov    %rbp,0x38(%rsp)
  102732:	48 cf                	iretq  

0000000000102734 <intr_handler_58>:
  102734:	55                   	push   %rbp
  102735:	48 89 e5             	mov    %rsp,%rbp
  102738:	50                   	push   %rax
  102739:	53                   	push   %rbx
  10273a:	51                   	push   %rcx
  10273b:	52                   	push   %rdx
  10273c:	57                   	push   %rdi
  10273d:	56                   	push   %rsi
  10273e:	54                   	push   %rsp
  10273f:	55                   	push   %rbp
  102740:	41 50                	push   %r8
  102742:	41 51                	push   %r9
  102744:	41 52                	push   %r10
  102746:	41 53                	push   %r11
  102748:	41 54                	push   %r12
  10274a:	41 55                	push   %r13
  10274c:	41 56                	push   %r14
  10274e:	41 57                	push   %r15
  102750:	9c                   	pushfq 
  102751:	bf 3a 00 00 00       	mov    $0x3a,%edi
  102756:	e8 fd 65 00 00       	callq  108d58 <intr_handler>
  10275b:	9d                   	popfq  
  10275c:	41 5f                	pop    %r15
  10275e:	41 5e                	pop    %r14
  102760:	41 5d                	pop    %r13
  102762:	41 5c                	pop    %r12
  102764:	41 5b                	pop    %r11
  102766:	41 5a                	pop    %r10
  102768:	41 59                	pop    %r9
  10276a:	41 58                	pop    %r8
  10276c:	5d                   	pop    %rbp
  10276d:	48 83 c4 08          	add    $0x8,%rsp
  102771:	5e                   	pop    %rsi
  102772:	5f                   	pop    %rdi
  102773:	5a                   	pop    %rdx
  102774:	59                   	pop    %rcx
  102775:	5b                   	pop    %rbx
  102776:	58                   	pop    %rax
  102777:	48 89 6c 24 38       	mov    %rbp,0x38(%rsp)
  10277c:	48 cf                	iretq  

000000000010277e <intr_handler_59>:
  10277e:	55                   	push   %rbp
  10277f:	48 89 e5             	mov    %rsp,%rbp
  102782:	50                   	push   %rax
  102783:	53                   	push   %rbx
  102784:	51                   	push   %rcx
  102785:	52                   	push   %rdx
  102786:	57                   	push   %rdi
  102787:	56                   	push   %rsi
  102788:	54                   	push   %rsp
  102789:	55                   	push   %rbp
  10278a:	41 50                	push   %r8
  10278c:	41 51                	push   %r9
  10278e:	41 52                	push   %r10
  102790:	41 53                	push   %r11
  102792:	41 54                	push   %r12
  102794:	41 55                	push   %r13
  102796:	41 56                	push   %r14
  102798:	41 57                	push   %r15
  10279a:	9c                   	pushfq 
  10279b:	bf 3b 00 00 00       	mov    $0x3b,%edi
  1027a0:	e8 b3 65 00 00       	callq  108d58 <intr_handler>
  1027a5:	9d                   	popfq  
  1027a6:	41 5f                	pop    %r15
  1027a8:	41 5e                	pop    %r14
  1027aa:	41 5d                	pop    %r13
  1027ac:	41 5c                	pop    %r12
  1027ae:	41 5b                	pop    %r11
  1027b0:	41 5a                	pop    %r10
  1027b2:	41 59                	pop    %r9
  1027b4:	41 58                	pop    %r8
  1027b6:	5d                   	pop    %rbp
  1027b7:	48 83 c4 08          	add    $0x8,%rsp
  1027bb:	5e                   	pop    %rsi
  1027bc:	5f                   	pop    %rdi
  1027bd:	5a                   	pop    %rdx
  1027be:	59                   	pop    %rcx
  1027bf:	5b                   	pop    %rbx
  1027c0:	58                   	pop    %rax
  1027c1:	48 89 6c 24 38       	mov    %rbp,0x38(%rsp)
  1027c6:	48 cf                	iretq  

00000000001027c8 <intr_handler_60>:
  1027c8:	55                   	push   %rbp
  1027c9:	48 89 e5             	mov    %rsp,%rbp
  1027cc:	50                   	push   %rax
  1027cd:	53                   	push   %rbx
  1027ce:	51                   	push   %rcx
  1027cf:	52                   	push   %rdx
  1027d0:	57                   	push   %rdi
  1027d1:	56                   	push   %rsi
  1027d2:	54                   	push   %rsp
  1027d3:	55                   	push   %rbp
  1027d4:	41 50                	push   %r8
  1027d6:	41 51                	push   %r9
  1027d8:	41 52                	push   %r10
  1027da:	41 53                	push   %r11
  1027dc:	41 54                	push   %r12
  1027de:	41 55                	push   %r13
  1027e0:	41 56                	push   %r14
  1027e2:	41 57                	push   %r15
  1027e4:	9c                   	pushfq 
  1027e5:	bf 3c 00 00 00       	mov    $0x3c,%edi
  1027ea:	e8 69 65 00 00       	callq  108d58 <intr_handler>
  1027ef:	9d                   	popfq  
  1027f0:	41 5f                	pop    %r15
  1027f2:	41 5e                	pop    %r14
  1027f4:	41 5d                	pop    %r13
  1027f6:	41 5c                	pop    %r12
  1027f8:	41 5b                	pop    %r11
  1027fa:	41 5a                	pop    %r10
  1027fc:	41 59                	pop    %r9
  1027fe:	41 58                	pop    %r8
  102800:	5d                   	pop    %rbp
  102801:	48 83 c4 08          	add    $0x8,%rsp
  102805:	5e                   	pop    %rsi
  102806:	5f                   	pop    %rdi
  102807:	5a                   	pop    %rdx
  102808:	59                   	pop    %rcx
  102809:	5b                   	pop    %rbx
  10280a:	58                   	pop    %rax
  10280b:	48 89 6c 24 38       	mov    %rbp,0x38(%rsp)
  102810:	48 cf                	iretq  

0000000000102812 <intr_handler_61>:
  102812:	55                   	push   %rbp
  102813:	48 89 e5             	mov    %rsp,%rbp
  102816:	50                   	push   %rax
  102817:	53                   	push   %rbx
  102818:	51                   	push   %rcx
  102819:	52                   	push   %rdx
  10281a:	57                   	push   %rdi
  10281b:	56                   	push   %rsi
  10281c:	54                   	push   %rsp
  10281d:	55                   	push   %rbp
  10281e:	41 50                	push   %r8
  102820:	41 51                	push   %r9
  102822:	41 52                	push   %r10
  102824:	41 53                	push   %r11
  102826:	41 54                	push   %r12
  102828:	41 55                	push   %r13
  10282a:	41 56                	push   %r14
  10282c:	41 57                	push   %r15
  10282e:	9c                   	pushfq 
  10282f:	bf 3d 00 00 00       	mov    $0x3d,%edi
  102834:	e8 1f 65 00 00       	callq  108d58 <intr_handler>
  102839:	9d                   	popfq  
  10283a:	41 5f                	pop    %r15
  10283c:	41 5e                	pop    %r14
  10283e:	41 5d                	pop    %r13
  102840:	41 5c                	pop    %r12
  102842:	41 5b                	pop    %r11
  102844:	41 5a                	pop    %r10
  102846:	41 59                	pop    %r9
  102848:	41 58                	pop    %r8
  10284a:	5d                   	pop    %rbp
  10284b:	48 83 c4 08          	add    $0x8,%rsp
  10284f:	5e                   	pop    %rsi
  102850:	5f                   	pop    %rdi
  102851:	5a                   	pop    %rdx
  102852:	59                   	pop    %rcx
  102853:	5b                   	pop    %rbx
  102854:	58                   	pop    %rax
  102855:	48 89 6c 24 38       	mov    %rbp,0x38(%rsp)
  10285a:	48 cf                	iretq  

000000000010285c <intr_handler_62>:
  10285c:	55                   	push   %rbp
  10285d:	48 89 e5             	mov    %rsp,%rbp
  102860:	50                   	push   %rax
  102861:	53                   	push   %rbx
  102862:	51                   	push   %rcx
  102863:	52                   	push   %rdx
  102864:	57                   	push   %rdi
  102865:	56                   	push   %rsi
  102866:	54                   	push   %rsp
  102867:	55                   	push   %rbp
  102868:	41 50                	push   %r8
  10286a:	41 51                	push   %r9
  10286c:	41 52                	push   %r10
  10286e:	41 53                	push   %r11
  102870:	41 54                	push   %r12
  102872:	41 55                	push   %r13
  102874:	41 56                	push   %r14
  102876:	41 57                	push   %r15
  102878:	9c                   	pushfq 
  102879:	bf 3e 00 00 00       	mov    $0x3e,%edi
  10287e:	e8 d5 64 00 00       	callq  108d58 <intr_handler>
  102883:	9d                   	popfq  
  102884:	41 5f                	pop    %r15
  102886:	41 5e                	pop    %r14
  102888:	41 5d                	pop    %r13
  10288a:	41 5c                	pop    %r12
  10288c:	41 5b                	pop    %r11
  10288e:	41 5a                	pop    %r10
  102890:	41 59                	pop    %r9
  102892:	41 58                	pop    %r8
  102894:	5d                   	pop    %rbp
  102895:	48 83 c4 08          	add    $0x8,%rsp
  102899:	5e                   	pop    %rsi
  10289a:	5f                   	pop    %rdi
  10289b:	5a                   	pop    %rdx
  10289c:	59                   	pop    %rcx
  10289d:	5b                   	pop    %rbx
  10289e:	58                   	pop    %rax
  10289f:	48 89 6c 24 38       	mov    %rbp,0x38(%rsp)
  1028a4:	48 cf                	iretq  

00000000001028a6 <intr_handler_63>:
  1028a6:	55                   	push   %rbp
  1028a7:	48 89 e5             	mov    %rsp,%rbp
  1028aa:	50                   	push   %rax
  1028ab:	53                   	push   %rbx
  1028ac:	51                   	push   %rcx
  1028ad:	52                   	push   %rdx
  1028ae:	57                   	push   %rdi
  1028af:	56                   	push   %rsi
  1028b0:	54                   	push   %rsp
  1028b1:	55                   	push   %rbp
  1028b2:	41 50                	push   %r8
  1028b4:	41 51                	push   %r9
  1028b6:	41 52                	push   %r10
  1028b8:	41 53                	push   %r11
  1028ba:	41 54                	push   %r12
  1028bc:	41 55                	push   %r13
  1028be:	41 56                	push   %r14
  1028c0:	41 57                	push   %r15
  1028c2:	9c                   	pushfq 
  1028c3:	bf 3f 00 00 00       	mov    $0x3f,%edi
  1028c8:	e8 8b 64 00 00       	callq  108d58 <intr_handler>
  1028cd:	9d                   	popfq  
  1028ce:	41 5f                	pop    %r15
  1028d0:	41 5e                	pop    %r14
  1028d2:	41 5d                	pop    %r13
  1028d4:	41 5c                	pop    %r12
  1028d6:	41 5b                	pop    %r11
  1028d8:	41 5a                	pop    %r10
  1028da:	41 59                	pop    %r9
  1028dc:	41 58                	pop    %r8
  1028de:	5d                   	pop    %rbp
  1028df:	48 83 c4 08          	add    $0x8,%rsp
  1028e3:	5e                   	pop    %rsi
  1028e4:	5f                   	pop    %rdi
  1028e5:	5a                   	pop    %rdx
  1028e6:	59                   	pop    %rcx
  1028e7:	5b                   	pop    %rbx
  1028e8:	58                   	pop    %rax
  1028e9:	48 89 6c 24 38       	mov    %rbp,0x38(%rsp)
  1028ee:	48 cf                	iretq  

00000000001028f0 <intr_handler_64>:
  1028f0:	55                   	push   %rbp
  1028f1:	48 89 e5             	mov    %rsp,%rbp
  1028f4:	50                   	push   %rax
  1028f5:	53                   	push   %rbx
  1028f6:	51                   	push   %rcx
  1028f7:	52                   	push   %rdx
  1028f8:	57                   	push   %rdi
  1028f9:	56                   	push   %rsi
  1028fa:	54                   	push   %rsp
  1028fb:	55                   	push   %rbp
  1028fc:	41 50                	push   %r8
  1028fe:	41 51                	push   %r9
  102900:	41 52                	push   %r10
  102902:	41 53                	push   %r11
  102904:	41 54                	push   %r12
  102906:	41 55                	push   %r13
  102908:	41 56                	push   %r14
  10290a:	41 57                	push   %r15
  10290c:	9c                   	pushfq 
  10290d:	bf 40 00 00 00       	mov    $0x40,%edi
  102912:	e8 41 64 00 00       	callq  108d58 <intr_handler>
  102917:	9d                   	popfq  
  102918:	41 5f                	pop    %r15
  10291a:	41 5e                	pop    %r14
  10291c:	41 5d                	pop    %r13
  10291e:	41 5c                	pop    %r12
  102920:	41 5b                	pop    %r11
  102922:	41 5a                	pop    %r10
  102924:	41 59                	pop    %r9
  102926:	41 58                	pop    %r8
  102928:	5d                   	pop    %rbp
  102929:	48 83 c4 08          	add    $0x8,%rsp
  10292d:	5e                   	pop    %rsi
  10292e:	5f                   	pop    %rdi
  10292f:	5a                   	pop    %rdx
  102930:	59                   	pop    %rcx
  102931:	5b                   	pop    %rbx
  102932:	58                   	pop    %rax
  102933:	48 89 6c 24 38       	mov    %rbp,0x38(%rsp)
  102938:	48 cf                	iretq  

000000000010293a <intr_handler_65>:
  10293a:	55                   	push   %rbp
  10293b:	48 89 e5             	mov    %rsp,%rbp
  10293e:	50                   	push   %rax
  10293f:	53                   	push   %rbx
  102940:	51                   	push   %rcx
  102941:	52                   	push   %rdx
  102942:	57                   	push   %rdi
  102943:	56                   	push   %rsi
  102944:	54                   	push   %rsp
  102945:	55                   	push   %rbp
  102946:	41 50                	push   %r8
  102948:	41 51                	push   %r9
  10294a:	41 52                	push   %r10
  10294c:	41 53                	push   %r11
  10294e:	41 54                	push   %r12
  102950:	41 55                	push   %r13
  102952:	41 56                	push   %r14
  102954:	41 57                	push   %r15
  102956:	9c                   	pushfq 
  102957:	bf 41 00 00 00       	mov    $0x41,%edi
  10295c:	e8 f7 63 00 00       	callq  108d58 <intr_handler>
  102961:	9d                   	popfq  
  102962:	41 5f                	pop    %r15
  102964:	41 5e                	pop    %r14
  102966:	41 5d                	pop    %r13
  102968:	41 5c                	pop    %r12
  10296a:	41 5b                	pop    %r11
  10296c:	41 5a                	pop    %r10
  10296e:	41 59                	pop    %r9
  102970:	41 58                	pop    %r8
  102972:	5d                   	pop    %rbp
  102973:	48 83 c4 08          	add    $0x8,%rsp
  102977:	5e                   	pop    %rsi
  102978:	5f                   	pop    %rdi
  102979:	5a                   	pop    %rdx
  10297a:	59                   	pop    %rcx
  10297b:	5b                   	pop    %rbx
  10297c:	58                   	pop    %rax
  10297d:	48 89 6c 24 38       	mov    %rbp,0x38(%rsp)
  102982:	48 cf                	iretq  

0000000000102984 <intr_handler_66>:
  102984:	55                   	push   %rbp
  102985:	48 89 e5             	mov    %rsp,%rbp
  102988:	50                   	push   %rax
  102989:	53                   	push   %rbx
  10298a:	51                   	push   %rcx
  10298b:	52                   	push   %rdx
  10298c:	57                   	push   %rdi
  10298d:	56                   	push   %rsi
  10298e:	54                   	push   %rsp
  10298f:	55                   	push   %rbp
  102990:	41 50                	push   %r8
  102992:	41 51                	push   %r9
  102994:	41 52                	push   %r10
  102996:	41 53                	push   %r11
  102998:	41 54                	push   %r12
  10299a:	41 55                	push   %r13
  10299c:	41 56                	push   %r14
  10299e:	41 57                	push   %r15
  1029a0:	9c                   	pushfq 
  1029a1:	bf 42 00 00 00       	mov    $0x42,%edi
  1029a6:	e8 ad 63 00 00       	callq  108d58 <intr_handler>
  1029ab:	9d                   	popfq  
  1029ac:	41 5f                	pop    %r15
  1029ae:	41 5e                	pop    %r14
  1029b0:	41 5d                	pop    %r13
  1029b2:	41 5c                	pop    %r12
  1029b4:	41 5b                	pop    %r11
  1029b6:	41 5a                	pop    %r10
  1029b8:	41 59                	pop    %r9
  1029ba:	41 58                	pop    %r8
  1029bc:	5d                   	pop    %rbp
  1029bd:	48 83 c4 08          	add    $0x8,%rsp
  1029c1:	5e                   	pop    %rsi
  1029c2:	5f                   	pop    %rdi
  1029c3:	5a                   	pop    %rdx
  1029c4:	59                   	pop    %rcx
  1029c5:	5b                   	pop    %rbx
  1029c6:	58                   	pop    %rax
  1029c7:	48 89 6c 24 38       	mov    %rbp,0x38(%rsp)
  1029cc:	48 cf                	iretq  

00000000001029ce <intr_handler_67>:
  1029ce:	55                   	push   %rbp
  1029cf:	48 89 e5             	mov    %rsp,%rbp
  1029d2:	50                   	push   %rax
  1029d3:	53                   	push   %rbx
  1029d4:	51                   	push   %rcx
  1029d5:	52                   	push   %rdx
  1029d6:	57                   	push   %rdi
  1029d7:	56                   	push   %rsi
  1029d8:	54                   	push   %rsp
  1029d9:	55                   	push   %rbp
  1029da:	41 50                	push   %r8
  1029dc:	41 51                	push   %r9
  1029de:	41 52                	push   %r10
  1029e0:	41 53                	push   %r11
  1029e2:	41 54                	push   %r12
  1029e4:	41 55                	push   %r13
  1029e6:	41 56                	push   %r14
  1029e8:	41 57                	push   %r15
  1029ea:	9c                   	pushfq 
  1029eb:	bf 43 00 00 00       	mov    $0x43,%edi
  1029f0:	e8 63 63 00 00       	callq  108d58 <intr_handler>
  1029f5:	9d                   	popfq  
  1029f6:	41 5f                	pop    %r15
  1029f8:	41 5e                	pop    %r14
  1029fa:	41 5d                	pop    %r13
  1029fc:	41 5c                	pop    %r12
  1029fe:	41 5b                	pop    %r11
  102a00:	41 5a                	pop    %r10
  102a02:	41 59                	pop    %r9
  102a04:	41 58                	pop    %r8
  102a06:	5d                   	pop    %rbp
  102a07:	48 83 c4 08          	add    $0x8,%rsp
  102a0b:	5e                   	pop    %rsi
  102a0c:	5f                   	pop    %rdi
  102a0d:	5a                   	pop    %rdx
  102a0e:	59                   	pop    %rcx
  102a0f:	5b                   	pop    %rbx
  102a10:	58                   	pop    %rax
  102a11:	48 89 6c 24 38       	mov    %rbp,0x38(%rsp)
  102a16:	48 cf                	iretq  

0000000000102a18 <intr_handler_68>:
  102a18:	55                   	push   %rbp
  102a19:	48 89 e5             	mov    %rsp,%rbp
  102a1c:	50                   	push   %rax
  102a1d:	53                   	push   %rbx
  102a1e:	51                   	push   %rcx
  102a1f:	52                   	push   %rdx
  102a20:	57                   	push   %rdi
  102a21:	56                   	push   %rsi
  102a22:	54                   	push   %rsp
  102a23:	55                   	push   %rbp
  102a24:	41 50                	push   %r8
  102a26:	41 51                	push   %r9
  102a28:	41 52                	push   %r10
  102a2a:	41 53                	push   %r11
  102a2c:	41 54                	push   %r12
  102a2e:	41 55                	push   %r13
  102a30:	41 56                	push   %r14
  102a32:	41 57                	push   %r15
  102a34:	9c                   	pushfq 
  102a35:	bf 44 00 00 00       	mov    $0x44,%edi
  102a3a:	e8 19 63 00 00       	callq  108d58 <intr_handler>
  102a3f:	9d                   	popfq  
  102a40:	41 5f                	pop    %r15
  102a42:	41 5e                	pop    %r14
  102a44:	41 5d                	pop    %r13
  102a46:	41 5c                	pop    %r12
  102a48:	41 5b                	pop    %r11
  102a4a:	41 5a                	pop    %r10
  102a4c:	41 59                	pop    %r9
  102a4e:	41 58                	pop    %r8
  102a50:	5d                   	pop    %rbp
  102a51:	48 83 c4 08          	add    $0x8,%rsp
  102a55:	5e                   	pop    %rsi
  102a56:	5f                   	pop    %rdi
  102a57:	5a                   	pop    %rdx
  102a58:	59                   	pop    %rcx
  102a59:	5b                   	pop    %rbx
  102a5a:	58                   	pop    %rax
  102a5b:	48 89 6c 24 38       	mov    %rbp,0x38(%rsp)
  102a60:	48 cf                	iretq  

0000000000102a62 <intr_handler_69>:
  102a62:	55                   	push   %rbp
  102a63:	48 89 e5             	mov    %rsp,%rbp
  102a66:	50                   	push   %rax
  102a67:	53                   	push   %rbx
  102a68:	51                   	push   %rcx
  102a69:	52                   	push   %rdx
  102a6a:	57                   	push   %rdi
  102a6b:	56                   	push   %rsi
  102a6c:	54                   	push   %rsp
  102a6d:	55                   	push   %rbp
  102a6e:	41 50                	push   %r8
  102a70:	41 51                	push   %r9
  102a72:	41 52                	push   %r10
  102a74:	41 53                	push   %r11
  102a76:	41 54                	push   %r12
  102a78:	41 55                	push   %r13
  102a7a:	41 56                	push   %r14
  102a7c:	41 57                	push   %r15
  102a7e:	9c                   	pushfq 
  102a7f:	bf 45 00 00 00       	mov    $0x45,%edi
  102a84:	e8 cf 62 00 00       	callq  108d58 <intr_handler>
  102a89:	9d                   	popfq  
  102a8a:	41 5f                	pop    %r15
  102a8c:	41 5e                	pop    %r14
  102a8e:	41 5d                	pop    %r13
  102a90:	41 5c                	pop    %r12
  102a92:	41 5b                	pop    %r11
  102a94:	41 5a                	pop    %r10
  102a96:	41 59                	pop    %r9
  102a98:	41 58                	pop    %r8
  102a9a:	5d                   	pop    %rbp
  102a9b:	48 83 c4 08          	add    $0x8,%rsp
  102a9f:	5e                   	pop    %rsi
  102aa0:	5f                   	pop    %rdi
  102aa1:	5a                   	pop    %rdx
  102aa2:	59                   	pop    %rcx
  102aa3:	5b                   	pop    %rbx
  102aa4:	58                   	pop    %rax
  102aa5:	48 89 6c 24 38       	mov    %rbp,0x38(%rsp)
  102aaa:	48 cf                	iretq  

0000000000102aac <intr_handler_70>:
  102aac:	55                   	push   %rbp
  102aad:	48 89 e5             	mov    %rsp,%rbp
  102ab0:	50                   	push   %rax
  102ab1:	53                   	push   %rbx
  102ab2:	51                   	push   %rcx
  102ab3:	52                   	push   %rdx
  102ab4:	57                   	push   %rdi
  102ab5:	56                   	push   %rsi
  102ab6:	54                   	push   %rsp
  102ab7:	55                   	push   %rbp
  102ab8:	41 50                	push   %r8
  102aba:	41 51                	push   %r9
  102abc:	41 52                	push   %r10
  102abe:	41 53                	push   %r11
  102ac0:	41 54                	push   %r12
  102ac2:	41 55                	push   %r13
  102ac4:	41 56                	push   %r14
  102ac6:	41 57                	push   %r15
  102ac8:	9c                   	pushfq 
  102ac9:	bf 46 00 00 00       	mov    $0x46,%edi
  102ace:	e8 85 62 00 00       	callq  108d58 <intr_handler>
  102ad3:	9d                   	popfq  
  102ad4:	41 5f                	pop    %r15
  102ad6:	41 5e                	pop    %r14
  102ad8:	41 5d                	pop    %r13
  102ada:	41 5c                	pop    %r12
  102adc:	41 5b                	pop    %r11
  102ade:	41 5a                	pop    %r10
  102ae0:	41 59                	pop    %r9
  102ae2:	41 58                	pop    %r8
  102ae4:	5d                   	pop    %rbp
  102ae5:	48 83 c4 08          	add    $0x8,%rsp
  102ae9:	5e                   	pop    %rsi
  102aea:	5f                   	pop    %rdi
  102aeb:	5a                   	pop    %rdx
  102aec:	59                   	pop    %rcx
  102aed:	5b                   	pop    %rbx
  102aee:	58                   	pop    %rax
  102aef:	48 89 6c 24 38       	mov    %rbp,0x38(%rsp)
  102af4:	48 cf                	iretq  

0000000000102af6 <intr_handler_71>:
  102af6:	55                   	push   %rbp
  102af7:	48 89 e5             	mov    %rsp,%rbp
  102afa:	50                   	push   %rax
  102afb:	53                   	push   %rbx
  102afc:	51                   	push   %rcx
  102afd:	52                   	push   %rdx
  102afe:	57                   	push   %rdi
  102aff:	56                   	push   %rsi
  102b00:	54                   	push   %rsp
  102b01:	55                   	push   %rbp
  102b02:	41 50                	push   %r8
  102b04:	41 51                	push   %r9
  102b06:	41 52                	push   %r10
  102b08:	41 53                	push   %r11
  102b0a:	41 54                	push   %r12
  102b0c:	41 55                	push   %r13
  102b0e:	41 56                	push   %r14
  102b10:	41 57                	push   %r15
  102b12:	9c                   	pushfq 
  102b13:	bf 47 00 00 00       	mov    $0x47,%edi
  102b18:	e8 3b 62 00 00       	callq  108d58 <intr_handler>
  102b1d:	9d                   	popfq  
  102b1e:	41 5f                	pop    %r15
  102b20:	41 5e                	pop    %r14
  102b22:	41 5d                	pop    %r13
  102b24:	41 5c                	pop    %r12
  102b26:	41 5b                	pop    %r11
  102b28:	41 5a                	pop    %r10
  102b2a:	41 59                	pop    %r9
  102b2c:	41 58                	pop    %r8
  102b2e:	5d                   	pop    %rbp
  102b2f:	48 83 c4 08          	add    $0x8,%rsp
  102b33:	5e                   	pop    %rsi
  102b34:	5f                   	pop    %rdi
  102b35:	5a                   	pop    %rdx
  102b36:	59                   	pop    %rcx
  102b37:	5b                   	pop    %rbx
  102b38:	58                   	pop    %rax
  102b39:	48 89 6c 24 38       	mov    %rbp,0x38(%rsp)
  102b3e:	48 cf                	iretq  

0000000000102b40 <intr_handler_72>:
  102b40:	55                   	push   %rbp
  102b41:	48 89 e5             	mov    %rsp,%rbp
  102b44:	50                   	push   %rax
  102b45:	53                   	push   %rbx
  102b46:	51                   	push   %rcx
  102b47:	52                   	push   %rdx
  102b48:	57                   	push   %rdi
  102b49:	56                   	push   %rsi
  102b4a:	54                   	push   %rsp
  102b4b:	55                   	push   %rbp
  102b4c:	41 50                	push   %r8
  102b4e:	41 51                	push   %r9
  102b50:	41 52                	push   %r10
  102b52:	41 53                	push   %r11
  102b54:	41 54                	push   %r12
  102b56:	41 55                	push   %r13
  102b58:	41 56                	push   %r14
  102b5a:	41 57                	push   %r15
  102b5c:	9c                   	pushfq 
  102b5d:	bf 48 00 00 00       	mov    $0x48,%edi
  102b62:	e8 f1 61 00 00       	callq  108d58 <intr_handler>
  102b67:	9d                   	popfq  
  102b68:	41 5f                	pop    %r15
  102b6a:	41 5e                	pop    %r14
  102b6c:	41 5d                	pop    %r13
  102b6e:	41 5c                	pop    %r12
  102b70:	41 5b                	pop    %r11
  102b72:	41 5a                	pop    %r10
  102b74:	41 59                	pop    %r9
  102b76:	41 58                	pop    %r8
  102b78:	5d                   	pop    %rbp
  102b79:	48 83 c4 08          	add    $0x8,%rsp
  102b7d:	5e                   	pop    %rsi
  102b7e:	5f                   	pop    %rdi
  102b7f:	5a                   	pop    %rdx
  102b80:	59                   	pop    %rcx
  102b81:	5b                   	pop    %rbx
  102b82:	58                   	pop    %rax
  102b83:	48 89 6c 24 38       	mov    %rbp,0x38(%rsp)
  102b88:	48 cf                	iretq  

0000000000102b8a <intr_handler_73>:
  102b8a:	55                   	push   %rbp
  102b8b:	48 89 e5             	mov    %rsp,%rbp
  102b8e:	50                   	push   %rax
  102b8f:	53                   	push   %rbx
  102b90:	51                   	push   %rcx
  102b91:	52                   	push   %rdx
  102b92:	57                   	push   %rdi
  102b93:	56                   	push   %rsi
  102b94:	54                   	push   %rsp
  102b95:	55                   	push   %rbp
  102b96:	41 50                	push   %r8
  102b98:	41 51                	push   %r9
  102b9a:	41 52                	push   %r10
  102b9c:	41 53                	push   %r11
  102b9e:	41 54                	push   %r12
  102ba0:	41 55                	push   %r13
  102ba2:	41 56                	push   %r14
  102ba4:	41 57                	push   %r15
  102ba6:	9c                   	pushfq 
  102ba7:	bf 49 00 00 00       	mov    $0x49,%edi
  102bac:	e8 a7 61 00 00       	callq  108d58 <intr_handler>
  102bb1:	9d                   	popfq  
  102bb2:	41 5f                	pop    %r15
  102bb4:	41 5e                	pop    %r14
  102bb6:	41 5d                	pop    %r13
  102bb8:	41 5c                	pop    %r12
  102bba:	41 5b                	pop    %r11
  102bbc:	41 5a                	pop    %r10
  102bbe:	41 59                	pop    %r9
  102bc0:	41 58                	pop    %r8
  102bc2:	5d                   	pop    %rbp
  102bc3:	48 83 c4 08          	add    $0x8,%rsp
  102bc7:	5e                   	pop    %rsi
  102bc8:	5f                   	pop    %rdi
  102bc9:	5a                   	pop    %rdx
  102bca:	59                   	pop    %rcx
  102bcb:	5b                   	pop    %rbx
  102bcc:	58                   	pop    %rax
  102bcd:	48 89 6c 24 38       	mov    %rbp,0x38(%rsp)
  102bd2:	48 cf                	iretq  

0000000000102bd4 <intr_handler_74>:
  102bd4:	55                   	push   %rbp
  102bd5:	48 89 e5             	mov    %rsp,%rbp
  102bd8:	50                   	push   %rax
  102bd9:	53                   	push   %rbx
  102bda:	51                   	push   %rcx
  102bdb:	52                   	push   %rdx
  102bdc:	57                   	push   %rdi
  102bdd:	56                   	push   %rsi
  102bde:	54                   	push   %rsp
  102bdf:	55                   	push   %rbp
  102be0:	41 50                	push   %r8
  102be2:	41 51                	push   %r9
  102be4:	41 52                	push   %r10
  102be6:	41 53                	push   %r11
  102be8:	41 54                	push   %r12
  102bea:	41 55                	push   %r13
  102bec:	41 56                	push   %r14
  102bee:	41 57                	push   %r15
  102bf0:	9c                   	pushfq 
  102bf1:	bf 4a 00 00 00       	mov    $0x4a,%edi
  102bf6:	e8 5d 61 00 00       	callq  108d58 <intr_handler>
  102bfb:	9d                   	popfq  
  102bfc:	41 5f                	pop    %r15
  102bfe:	41 5e                	pop    %r14
  102c00:	41 5d                	pop    %r13
  102c02:	41 5c                	pop    %r12
  102c04:	41 5b                	pop    %r11
  102c06:	41 5a                	pop    %r10
  102c08:	41 59                	pop    %r9
  102c0a:	41 58                	pop    %r8
  102c0c:	5d                   	pop    %rbp
  102c0d:	48 83 c4 08          	add    $0x8,%rsp
  102c11:	5e                   	pop    %rsi
  102c12:	5f                   	pop    %rdi
  102c13:	5a                   	pop    %rdx
  102c14:	59                   	pop    %rcx
  102c15:	5b                   	pop    %rbx
  102c16:	58                   	pop    %rax
  102c17:	48 89 6c 24 38       	mov    %rbp,0x38(%rsp)
  102c1c:	48 cf                	iretq  

0000000000102c1e <intr_handler_75>:
  102c1e:	55                   	push   %rbp
  102c1f:	48 89 e5             	mov    %rsp,%rbp
  102c22:	50                   	push   %rax
  102c23:	53                   	push   %rbx
  102c24:	51                   	push   %rcx
  102c25:	52                   	push   %rdx
  102c26:	57                   	push   %rdi
  102c27:	56                   	push   %rsi
  102c28:	54                   	push   %rsp
  102c29:	55                   	push   %rbp
  102c2a:	41 50                	push   %r8
  102c2c:	41 51                	push   %r9
  102c2e:	41 52                	push   %r10
  102c30:	41 53                	push   %r11
  102c32:	41 54                	push   %r12
  102c34:	41 55                	push   %r13
  102c36:	41 56                	push   %r14
  102c38:	41 57                	push   %r15
  102c3a:	9c                   	pushfq 
  102c3b:	bf 4b 00 00 00       	mov    $0x4b,%edi
  102c40:	e8 13 61 00 00       	callq  108d58 <intr_handler>
  102c45:	9d                   	popfq  
  102c46:	41 5f                	pop    %r15
  102c48:	41 5e                	pop    %r14
  102c4a:	41 5d                	pop    %r13
  102c4c:	41 5c                	pop    %r12
  102c4e:	41 5b                	pop    %r11
  102c50:	41 5a                	pop    %r10
  102c52:	41 59                	pop    %r9
  102c54:	41 58                	pop    %r8
  102c56:	5d                   	pop    %rbp
  102c57:	48 83 c4 08          	add    $0x8,%rsp
  102c5b:	5e                   	pop    %rsi
  102c5c:	5f                   	pop    %rdi
  102c5d:	5a                   	pop    %rdx
  102c5e:	59                   	pop    %rcx
  102c5f:	5b                   	pop    %rbx
  102c60:	58                   	pop    %rax
  102c61:	48 89 6c 24 38       	mov    %rbp,0x38(%rsp)
  102c66:	48 cf                	iretq  

0000000000102c68 <intr_handler_76>:
  102c68:	55                   	push   %rbp
  102c69:	48 89 e5             	mov    %rsp,%rbp
  102c6c:	50                   	push   %rax
  102c6d:	53                   	push   %rbx
  102c6e:	51                   	push   %rcx
  102c6f:	52                   	push   %rdx
  102c70:	57                   	push   %rdi
  102c71:	56                   	push   %rsi
  102c72:	54                   	push   %rsp
  102c73:	55                   	push   %rbp
  102c74:	41 50                	push   %r8
  102c76:	41 51                	push   %r9
  102c78:	41 52                	push   %r10
  102c7a:	41 53                	push   %r11
  102c7c:	41 54                	push   %r12
  102c7e:	41 55                	push   %r13
  102c80:	41 56                	push   %r14
  102c82:	41 57                	push   %r15
  102c84:	9c                   	pushfq 
  102c85:	bf 4c 00 00 00       	mov    $0x4c,%edi
  102c8a:	e8 c9 60 00 00       	callq  108d58 <intr_handler>
  102c8f:	9d                   	popfq  
  102c90:	41 5f                	pop    %r15
  102c92:	41 5e                	pop    %r14
  102c94:	41 5d                	pop    %r13
  102c96:	41 5c                	pop    %r12
  102c98:	41 5b                	pop    %r11
  102c9a:	41 5a                	pop    %r10
  102c9c:	41 59                	pop    %r9
  102c9e:	41 58                	pop    %r8
  102ca0:	5d                   	pop    %rbp
  102ca1:	48 83 c4 08          	add    $0x8,%rsp
  102ca5:	5e                   	pop    %rsi
  102ca6:	5f                   	pop    %rdi
  102ca7:	5a                   	pop    %rdx
  102ca8:	59                   	pop    %rcx
  102ca9:	5b                   	pop    %rbx
  102caa:	58                   	pop    %rax
  102cab:	48 89 6c 24 38       	mov    %rbp,0x38(%rsp)
  102cb0:	48 cf                	iretq  

0000000000102cb2 <intr_handler_77>:
  102cb2:	55                   	push   %rbp
  102cb3:	48 89 e5             	mov    %rsp,%rbp
  102cb6:	50                   	push   %rax
  102cb7:	53                   	push   %rbx
  102cb8:	51                   	push   %rcx
  102cb9:	52                   	push   %rdx
  102cba:	57                   	push   %rdi
  102cbb:	56                   	push   %rsi
  102cbc:	54                   	push   %rsp
  102cbd:	55                   	push   %rbp
  102cbe:	41 50                	push   %r8
  102cc0:	41 51                	push   %r9
  102cc2:	41 52                	push   %r10
  102cc4:	41 53                	push   %r11
  102cc6:	41 54                	push   %r12
  102cc8:	41 55                	push   %r13
  102cca:	41 56                	push   %r14
  102ccc:	41 57                	push   %r15
  102cce:	9c                   	pushfq 
  102ccf:	bf 4d 00 00 00       	mov    $0x4d,%edi
  102cd4:	e8 7f 60 00 00       	callq  108d58 <intr_handler>
  102cd9:	9d                   	popfq  
  102cda:	41 5f                	pop    %r15
  102cdc:	41 5e                	pop    %r14
  102cde:	41 5d                	pop    %r13
  102ce0:	41 5c                	pop    %r12
  102ce2:	41 5b                	pop    %r11
  102ce4:	41 5a                	pop    %r10
  102ce6:	41 59                	pop    %r9
  102ce8:	41 58                	pop    %r8
  102cea:	5d                   	pop    %rbp
  102ceb:	48 83 c4 08          	add    $0x8,%rsp
  102cef:	5e                   	pop    %rsi
  102cf0:	5f                   	pop    %rdi
  102cf1:	5a                   	pop    %rdx
  102cf2:	59                   	pop    %rcx
  102cf3:	5b                   	pop    %rbx
  102cf4:	58                   	pop    %rax
  102cf5:	48 89 6c 24 38       	mov    %rbp,0x38(%rsp)
  102cfa:	48 cf                	iretq  

0000000000102cfc <intr_handler_78>:
  102cfc:	55                   	push   %rbp
  102cfd:	48 89 e5             	mov    %rsp,%rbp
  102d00:	50                   	push   %rax
  102d01:	53                   	push   %rbx
  102d02:	51                   	push   %rcx
  102d03:	52                   	push   %rdx
  102d04:	57                   	push   %rdi
  102d05:	56                   	push   %rsi
  102d06:	54                   	push   %rsp
  102d07:	55                   	push   %rbp
  102d08:	41 50                	push   %r8
  102d0a:	41 51                	push   %r9
  102d0c:	41 52                	push   %r10
  102d0e:	41 53                	push   %r11
  102d10:	41 54                	push   %r12
  102d12:	41 55                	push   %r13
  102d14:	41 56                	push   %r14
  102d16:	41 57                	push   %r15
  102d18:	9c                   	pushfq 
  102d19:	bf 4e 00 00 00       	mov    $0x4e,%edi
  102d1e:	e8 35 60 00 00       	callq  108d58 <intr_handler>
  102d23:	9d                   	popfq  
  102d24:	41 5f                	pop    %r15
  102d26:	41 5e                	pop    %r14
  102d28:	41 5d                	pop    %r13
  102d2a:	41 5c                	pop    %r12
  102d2c:	41 5b                	pop    %r11
  102d2e:	41 5a                	pop    %r10
  102d30:	41 59                	pop    %r9
  102d32:	41 58                	pop    %r8
  102d34:	5d                   	pop    %rbp
  102d35:	48 83 c4 08          	add    $0x8,%rsp
  102d39:	5e                   	pop    %rsi
  102d3a:	5f                   	pop    %rdi
  102d3b:	5a                   	pop    %rdx
  102d3c:	59                   	pop    %rcx
  102d3d:	5b                   	pop    %rbx
  102d3e:	58                   	pop    %rax
  102d3f:	48 89 6c 24 38       	mov    %rbp,0x38(%rsp)
  102d44:	48 cf                	iretq  

0000000000102d46 <intr_handler_79>:
  102d46:	55                   	push   %rbp
  102d47:	48 89 e5             	mov    %rsp,%rbp
  102d4a:	50                   	push   %rax
  102d4b:	53                   	push   %rbx
  102d4c:	51                   	push   %rcx
  102d4d:	52                   	push   %rdx
  102d4e:	57                   	push   %rdi
  102d4f:	56                   	push   %rsi
  102d50:	54                   	push   %rsp
  102d51:	55                   	push   %rbp
  102d52:	41 50                	push   %r8
  102d54:	41 51                	push   %r9
  102d56:	41 52                	push   %r10
  102d58:	41 53                	push   %r11
  102d5a:	41 54                	push   %r12
  102d5c:	41 55                	push   %r13
  102d5e:	41 56                	push   %r14
  102d60:	41 57                	push   %r15
  102d62:	9c                   	pushfq 
  102d63:	bf 4f 00 00 00       	mov    $0x4f,%edi
  102d68:	e8 eb 5f 00 00       	callq  108d58 <intr_handler>
  102d6d:	9d                   	popfq  
  102d6e:	41 5f                	pop    %r15
  102d70:	41 5e                	pop    %r14
  102d72:	41 5d                	pop    %r13
  102d74:	41 5c                	pop    %r12
  102d76:	41 5b                	pop    %r11
  102d78:	41 5a                	pop    %r10
  102d7a:	41 59                	pop    %r9
  102d7c:	41 58                	pop    %r8
  102d7e:	5d                   	pop    %rbp
  102d7f:	48 83 c4 08          	add    $0x8,%rsp
  102d83:	5e                   	pop    %rsi
  102d84:	5f                   	pop    %rdi
  102d85:	5a                   	pop    %rdx
  102d86:	59                   	pop    %rcx
  102d87:	5b                   	pop    %rbx
  102d88:	58                   	pop    %rax
  102d89:	48 89 6c 24 38       	mov    %rbp,0x38(%rsp)
  102d8e:	48 cf                	iretq  

0000000000102d90 <intr_handler_80>:
  102d90:	55                   	push   %rbp
  102d91:	48 89 e5             	mov    %rsp,%rbp
  102d94:	50                   	push   %rax
  102d95:	53                   	push   %rbx
  102d96:	51                   	push   %rcx
  102d97:	52                   	push   %rdx
  102d98:	57                   	push   %rdi
  102d99:	56                   	push   %rsi
  102d9a:	54                   	push   %rsp
  102d9b:	55                   	push   %rbp
  102d9c:	41 50                	push   %r8
  102d9e:	41 51                	push   %r9
  102da0:	41 52                	push   %r10
  102da2:	41 53                	push   %r11
  102da4:	41 54                	push   %r12
  102da6:	41 55                	push   %r13
  102da8:	41 56                	push   %r14
  102daa:	41 57                	push   %r15
  102dac:	9c                   	pushfq 
  102dad:	bf 50 00 00 00       	mov    $0x50,%edi
  102db2:	e8 a1 5f 00 00       	callq  108d58 <intr_handler>
  102db7:	9d                   	popfq  
  102db8:	41 5f                	pop    %r15
  102dba:	41 5e                	pop    %r14
  102dbc:	41 5d                	pop    %r13
  102dbe:	41 5c                	pop    %r12
  102dc0:	41 5b                	pop    %r11
  102dc2:	41 5a                	pop    %r10
  102dc4:	41 59                	pop    %r9
  102dc6:	41 58                	pop    %r8
  102dc8:	5d                   	pop    %rbp
  102dc9:	48 83 c4 08          	add    $0x8,%rsp
  102dcd:	5e                   	pop    %rsi
  102dce:	5f                   	pop    %rdi
  102dcf:	5a                   	pop    %rdx
  102dd0:	59                   	pop    %rcx
  102dd1:	5b                   	pop    %rbx
  102dd2:	58                   	pop    %rax
  102dd3:	48 89 6c 24 38       	mov    %rbp,0x38(%rsp)
  102dd8:	48 cf                	iretq  

0000000000102dda <intr_handler_81>:
  102dda:	55                   	push   %rbp
  102ddb:	48 89 e5             	mov    %rsp,%rbp
  102dde:	50                   	push   %rax
  102ddf:	53                   	push   %rbx
  102de0:	51                   	push   %rcx
  102de1:	52                   	push   %rdx
  102de2:	57                   	push   %rdi
  102de3:	56                   	push   %rsi
  102de4:	54                   	push   %rsp
  102de5:	55                   	push   %rbp
  102de6:	41 50                	push   %r8
  102de8:	41 51                	push   %r9
  102dea:	41 52                	push   %r10
  102dec:	41 53                	push   %r11
  102dee:	41 54                	push   %r12
  102df0:	41 55                	push   %r13
  102df2:	41 56                	push   %r14
  102df4:	41 57                	push   %r15
  102df6:	9c                   	pushfq 
  102df7:	bf 51 00 00 00       	mov    $0x51,%edi
  102dfc:	e8 57 5f 00 00       	callq  108d58 <intr_handler>
  102e01:	9d                   	popfq  
  102e02:	41 5f                	pop    %r15
  102e04:	41 5e                	pop    %r14
  102e06:	41 5d                	pop    %r13
  102e08:	41 5c                	pop    %r12
  102e0a:	41 5b                	pop    %r11
  102e0c:	41 5a                	pop    %r10
  102e0e:	41 59                	pop    %r9
  102e10:	41 58                	pop    %r8
  102e12:	5d                   	pop    %rbp
  102e13:	48 83 c4 08          	add    $0x8,%rsp
  102e17:	5e                   	pop    %rsi
  102e18:	5f                   	pop    %rdi
  102e19:	5a                   	pop    %rdx
  102e1a:	59                   	pop    %rcx
  102e1b:	5b                   	pop    %rbx
  102e1c:	58                   	pop    %rax
  102e1d:	48 89 6c 24 38       	mov    %rbp,0x38(%rsp)
  102e22:	48 cf                	iretq  

0000000000102e24 <intr_handler_82>:
  102e24:	55                   	push   %rbp
  102e25:	48 89 e5             	mov    %rsp,%rbp
  102e28:	50                   	push   %rax
  102e29:	53                   	push   %rbx
  102e2a:	51                   	push   %rcx
  102e2b:	52                   	push   %rdx
  102e2c:	57                   	push   %rdi
  102e2d:	56                   	push   %rsi
  102e2e:	54                   	push   %rsp
  102e2f:	55                   	push   %rbp
  102e30:	41 50                	push   %r8
  102e32:	41 51                	push   %r9
  102e34:	41 52                	push   %r10
  102e36:	41 53                	push   %r11
  102e38:	41 54                	push   %r12
  102e3a:	41 55                	push   %r13
  102e3c:	41 56                	push   %r14
  102e3e:	41 57                	push   %r15
  102e40:	9c                   	pushfq 
  102e41:	bf 52 00 00 00       	mov    $0x52,%edi
  102e46:	e8 0d 5f 00 00       	callq  108d58 <intr_handler>
  102e4b:	9d                   	popfq  
  102e4c:	41 5f                	pop    %r15
  102e4e:	41 5e                	pop    %r14
  102e50:	41 5d                	pop    %r13
  102e52:	41 5c                	pop    %r12
  102e54:	41 5b                	pop    %r11
  102e56:	41 5a                	pop    %r10
  102e58:	41 59                	pop    %r9
  102e5a:	41 58                	pop    %r8
  102e5c:	5d                   	pop    %rbp
  102e5d:	48 83 c4 08          	add    $0x8,%rsp
  102e61:	5e                   	pop    %rsi
  102e62:	5f                   	pop    %rdi
  102e63:	5a                   	pop    %rdx
  102e64:	59                   	pop    %rcx
  102e65:	5b                   	pop    %rbx
  102e66:	58                   	pop    %rax
  102e67:	48 89 6c 24 38       	mov    %rbp,0x38(%rsp)
  102e6c:	48 cf                	iretq  

0000000000102e6e <intr_handler_83>:
  102e6e:	55                   	push   %rbp
  102e6f:	48 89 e5             	mov    %rsp,%rbp
  102e72:	50                   	push   %rax
  102e73:	53                   	push   %rbx
  102e74:	51                   	push   %rcx
  102e75:	52                   	push   %rdx
  102e76:	57                   	push   %rdi
  102e77:	56                   	push   %rsi
  102e78:	54                   	push   %rsp
  102e79:	55                   	push   %rbp
  102e7a:	41 50                	push   %r8
  102e7c:	41 51                	push   %r9
  102e7e:	41 52                	push   %r10
  102e80:	41 53                	push   %r11
  102e82:	41 54                	push   %r12
  102e84:	41 55                	push   %r13
  102e86:	41 56                	push   %r14
  102e88:	41 57                	push   %r15
  102e8a:	9c                   	pushfq 
  102e8b:	bf 53 00 00 00       	mov    $0x53,%edi
  102e90:	e8 c3 5e 00 00       	callq  108d58 <intr_handler>
  102e95:	9d                   	popfq  
  102e96:	41 5f                	pop    %r15
  102e98:	41 5e                	pop    %r14
  102e9a:	41 5d                	pop    %r13
  102e9c:	41 5c                	pop    %r12
  102e9e:	41 5b                	pop    %r11
  102ea0:	41 5a                	pop    %r10
  102ea2:	41 59                	pop    %r9
  102ea4:	41 58                	pop    %r8
  102ea6:	5d                   	pop    %rbp
  102ea7:	48 83 c4 08          	add    $0x8,%rsp
  102eab:	5e                   	pop    %rsi
  102eac:	5f                   	pop    %rdi
  102ead:	5a                   	pop    %rdx
  102eae:	59                   	pop    %rcx
  102eaf:	5b                   	pop    %rbx
  102eb0:	58                   	pop    %rax
  102eb1:	48 89 6c 24 38       	mov    %rbp,0x38(%rsp)
  102eb6:	48 cf                	iretq  

0000000000102eb8 <intr_handler_84>:
  102eb8:	55                   	push   %rbp
  102eb9:	48 89 e5             	mov    %rsp,%rbp
  102ebc:	50                   	push   %rax
  102ebd:	53                   	push   %rbx
  102ebe:	51                   	push   %rcx
  102ebf:	52                   	push   %rdx
  102ec0:	57                   	push   %rdi
  102ec1:	56                   	push   %rsi
  102ec2:	54                   	push   %rsp
  102ec3:	55                   	push   %rbp
  102ec4:	41 50                	push   %r8
  102ec6:	41 51                	push   %r9
  102ec8:	41 52                	push   %r10
  102eca:	41 53                	push   %r11
  102ecc:	41 54                	push   %r12
  102ece:	41 55                	push   %r13
  102ed0:	41 56                	push   %r14
  102ed2:	41 57                	push   %r15
  102ed4:	9c                   	pushfq 
  102ed5:	bf 54 00 00 00       	mov    $0x54,%edi
  102eda:	e8 79 5e 00 00       	callq  108d58 <intr_handler>
  102edf:	9d                   	popfq  
  102ee0:	41 5f                	pop    %r15
  102ee2:	41 5e                	pop    %r14
  102ee4:	41 5d                	pop    %r13
  102ee6:	41 5c                	pop    %r12
  102ee8:	41 5b                	pop    %r11
  102eea:	41 5a                	pop    %r10
  102eec:	41 59                	pop    %r9
  102eee:	41 58                	pop    %r8
  102ef0:	5d                   	pop    %rbp
  102ef1:	48 83 c4 08          	add    $0x8,%rsp
  102ef5:	5e                   	pop    %rsi
  102ef6:	5f                   	pop    %rdi
  102ef7:	5a                   	pop    %rdx
  102ef8:	59                   	pop    %rcx
  102ef9:	5b                   	pop    %rbx
  102efa:	58                   	pop    %rax
  102efb:	48 89 6c 24 38       	mov    %rbp,0x38(%rsp)
  102f00:	48 cf                	iretq  

0000000000102f02 <intr_handler_85>:
  102f02:	55                   	push   %rbp
  102f03:	48 89 e5             	mov    %rsp,%rbp
  102f06:	50                   	push   %rax
  102f07:	53                   	push   %rbx
  102f08:	51                   	push   %rcx
  102f09:	52                   	push   %rdx
  102f0a:	57                   	push   %rdi
  102f0b:	56                   	push   %rsi
  102f0c:	54                   	push   %rsp
  102f0d:	55                   	push   %rbp
  102f0e:	41 50                	push   %r8
  102f10:	41 51                	push   %r9
  102f12:	41 52                	push   %r10
  102f14:	41 53                	push   %r11
  102f16:	41 54                	push   %r12
  102f18:	41 55                	push   %r13
  102f1a:	41 56                	push   %r14
  102f1c:	41 57                	push   %r15
  102f1e:	9c                   	pushfq 
  102f1f:	bf 55 00 00 00       	mov    $0x55,%edi
  102f24:	e8 2f 5e 00 00       	callq  108d58 <intr_handler>
  102f29:	9d                   	popfq  
  102f2a:	41 5f                	pop    %r15
  102f2c:	41 5e                	pop    %r14
  102f2e:	41 5d                	pop    %r13
  102f30:	41 5c                	pop    %r12
  102f32:	41 5b                	pop    %r11
  102f34:	41 5a                	pop    %r10
  102f36:	41 59                	pop    %r9
  102f38:	41 58                	pop    %r8
  102f3a:	5d                   	pop    %rbp
  102f3b:	48 83 c4 08          	add    $0x8,%rsp
  102f3f:	5e                   	pop    %rsi
  102f40:	5f                   	pop    %rdi
  102f41:	5a                   	pop    %rdx
  102f42:	59                   	pop    %rcx
  102f43:	5b                   	pop    %rbx
  102f44:	58                   	pop    %rax
  102f45:	48 89 6c 24 38       	mov    %rbp,0x38(%rsp)
  102f4a:	48 cf                	iretq  

0000000000102f4c <intr_handler_86>:
  102f4c:	55                   	push   %rbp
  102f4d:	48 89 e5             	mov    %rsp,%rbp
  102f50:	50                   	push   %rax
  102f51:	53                   	push   %rbx
  102f52:	51                   	push   %rcx
  102f53:	52                   	push   %rdx
  102f54:	57                   	push   %rdi
  102f55:	56                   	push   %rsi
  102f56:	54                   	push   %rsp
  102f57:	55                   	push   %rbp
  102f58:	41 50                	push   %r8
  102f5a:	41 51                	push   %r9
  102f5c:	41 52                	push   %r10
  102f5e:	41 53                	push   %r11
  102f60:	41 54                	push   %r12
  102f62:	41 55                	push   %r13
  102f64:	41 56                	push   %r14
  102f66:	41 57                	push   %r15
  102f68:	9c                   	pushfq 
  102f69:	bf 56 00 00 00       	mov    $0x56,%edi
  102f6e:	e8 e5 5d 00 00       	callq  108d58 <intr_handler>
  102f73:	9d                   	popfq  
  102f74:	41 5f                	pop    %r15
  102f76:	41 5e                	pop    %r14
  102f78:	41 5d                	pop    %r13
  102f7a:	41 5c                	pop    %r12
  102f7c:	41 5b                	pop    %r11
  102f7e:	41 5a                	pop    %r10
  102f80:	41 59                	pop    %r9
  102f82:	41 58                	pop    %r8
  102f84:	5d                   	pop    %rbp
  102f85:	48 83 c4 08          	add    $0x8,%rsp
  102f89:	5e                   	pop    %rsi
  102f8a:	5f                   	pop    %rdi
  102f8b:	5a                   	pop    %rdx
  102f8c:	59                   	pop    %rcx
  102f8d:	5b                   	pop    %rbx
  102f8e:	58                   	pop    %rax
  102f8f:	48 89 6c 24 38       	mov    %rbp,0x38(%rsp)
  102f94:	48 cf                	iretq  

0000000000102f96 <intr_handler_87>:
  102f96:	55                   	push   %rbp
  102f97:	48 89 e5             	mov    %rsp,%rbp
  102f9a:	50                   	push   %rax
  102f9b:	53                   	push   %rbx
  102f9c:	51                   	push   %rcx
  102f9d:	52                   	push   %rdx
  102f9e:	57                   	push   %rdi
  102f9f:	56                   	push   %rsi
  102fa0:	54                   	push   %rsp
  102fa1:	55                   	push   %rbp
  102fa2:	41 50                	push   %r8
  102fa4:	41 51                	push   %r9
  102fa6:	41 52                	push   %r10
  102fa8:	41 53                	push   %r11
  102faa:	41 54                	push   %r12
  102fac:	41 55                	push   %r13
  102fae:	41 56                	push   %r14
  102fb0:	41 57                	push   %r15
  102fb2:	9c                   	pushfq 
  102fb3:	bf 57 00 00 00       	mov    $0x57,%edi
  102fb8:	e8 9b 5d 00 00       	callq  108d58 <intr_handler>
  102fbd:	9d                   	popfq  
  102fbe:	41 5f                	pop    %r15
  102fc0:	41 5e                	pop    %r14
  102fc2:	41 5d                	pop    %r13
  102fc4:	41 5c                	pop    %r12
  102fc6:	41 5b                	pop    %r11
  102fc8:	41 5a                	pop    %r10
  102fca:	41 59                	pop    %r9
  102fcc:	41 58                	pop    %r8
  102fce:	5d                   	pop    %rbp
  102fcf:	48 83 c4 08          	add    $0x8,%rsp
  102fd3:	5e                   	pop    %rsi
  102fd4:	5f                   	pop    %rdi
  102fd5:	5a                   	pop    %rdx
  102fd6:	59                   	pop    %rcx
  102fd7:	5b                   	pop    %rbx
  102fd8:	58                   	pop    %rax
  102fd9:	48 89 6c 24 38       	mov    %rbp,0x38(%rsp)
  102fde:	48 cf                	iretq  

0000000000102fe0 <intr_handler_88>:
  102fe0:	55                   	push   %rbp
  102fe1:	48 89 e5             	mov    %rsp,%rbp
  102fe4:	50                   	push   %rax
  102fe5:	53                   	push   %rbx
  102fe6:	51                   	push   %rcx
  102fe7:	52                   	push   %rdx
  102fe8:	57                   	push   %rdi
  102fe9:	56                   	push   %rsi
  102fea:	54                   	push   %rsp
  102feb:	55                   	push   %rbp
  102fec:	41 50                	push   %r8
  102fee:	41 51                	push   %r9
  102ff0:	41 52                	push   %r10
  102ff2:	41 53                	push   %r11
  102ff4:	41 54                	push   %r12
  102ff6:	41 55                	push   %r13
  102ff8:	41 56                	push   %r14
  102ffa:	41 57                	push   %r15
  102ffc:	9c                   	pushfq 
  102ffd:	bf 58 00 00 00       	mov    $0x58,%edi
  103002:	e8 51 5d 00 00       	callq  108d58 <intr_handler>
  103007:	9d                   	popfq  
  103008:	41 5f                	pop    %r15
  10300a:	41 5e                	pop    %r14
  10300c:	41 5d                	pop    %r13
  10300e:	41 5c                	pop    %r12
  103010:	41 5b                	pop    %r11
  103012:	41 5a                	pop    %r10
  103014:	41 59                	pop    %r9
  103016:	41 58                	pop    %r8
  103018:	5d                   	pop    %rbp
  103019:	48 83 c4 08          	add    $0x8,%rsp
  10301d:	5e                   	pop    %rsi
  10301e:	5f                   	pop    %rdi
  10301f:	5a                   	pop    %rdx
  103020:	59                   	pop    %rcx
  103021:	5b                   	pop    %rbx
  103022:	58                   	pop    %rax
  103023:	48 89 6c 24 38       	mov    %rbp,0x38(%rsp)
  103028:	48 cf                	iretq  

000000000010302a <intr_handler_89>:
  10302a:	55                   	push   %rbp
  10302b:	48 89 e5             	mov    %rsp,%rbp
  10302e:	50                   	push   %rax
  10302f:	53                   	push   %rbx
  103030:	51                   	push   %rcx
  103031:	52                   	push   %rdx
  103032:	57                   	push   %rdi
  103033:	56                   	push   %rsi
  103034:	54                   	push   %rsp
  103035:	55                   	push   %rbp
  103036:	41 50                	push   %r8
  103038:	41 51                	push   %r9
  10303a:	41 52                	push   %r10
  10303c:	41 53                	push   %r11
  10303e:	41 54                	push   %r12
  103040:	41 55                	push   %r13
  103042:	41 56                	push   %r14
  103044:	41 57                	push   %r15
  103046:	9c                   	pushfq 
  103047:	bf 59 00 00 00       	mov    $0x59,%edi
  10304c:	e8 07 5d 00 00       	callq  108d58 <intr_handler>
  103051:	9d                   	popfq  
  103052:	41 5f                	pop    %r15
  103054:	41 5e                	pop    %r14
  103056:	41 5d                	pop    %r13
  103058:	41 5c                	pop    %r12
  10305a:	41 5b                	pop    %r11
  10305c:	41 5a                	pop    %r10
  10305e:	41 59                	pop    %r9
  103060:	41 58                	pop    %r8
  103062:	5d                   	pop    %rbp
  103063:	48 83 c4 08          	add    $0x8,%rsp
  103067:	5e                   	pop    %rsi
  103068:	5f                   	pop    %rdi
  103069:	5a                   	pop    %rdx
  10306a:	59                   	pop    %rcx
  10306b:	5b                   	pop    %rbx
  10306c:	58                   	pop    %rax
  10306d:	48 89 6c 24 38       	mov    %rbp,0x38(%rsp)
  103072:	48 cf                	iretq  

0000000000103074 <intr_handler_90>:
  103074:	55                   	push   %rbp
  103075:	48 89 e5             	mov    %rsp,%rbp
  103078:	50                   	push   %rax
  103079:	53                   	push   %rbx
  10307a:	51                   	push   %rcx
  10307b:	52                   	push   %rdx
  10307c:	57                   	push   %rdi
  10307d:	56                   	push   %rsi
  10307e:	54                   	push   %rsp
  10307f:	55                   	push   %rbp
  103080:	41 50                	push   %r8
  103082:	41 51                	push   %r9
  103084:	41 52                	push   %r10
  103086:	41 53                	push   %r11
  103088:	41 54                	push   %r12
  10308a:	41 55                	push   %r13
  10308c:	41 56                	push   %r14
  10308e:	41 57                	push   %r15
  103090:	9c                   	pushfq 
  103091:	bf 5a 00 00 00       	mov    $0x5a,%edi
  103096:	e8 bd 5c 00 00       	callq  108d58 <intr_handler>
  10309b:	9d                   	popfq  
  10309c:	41 5f                	pop    %r15
  10309e:	41 5e                	pop    %r14
  1030a0:	41 5d                	pop    %r13
  1030a2:	41 5c                	pop    %r12
  1030a4:	41 5b                	pop    %r11
  1030a6:	41 5a                	pop    %r10
  1030a8:	41 59                	pop    %r9
  1030aa:	41 58                	pop    %r8
  1030ac:	5d                   	pop    %rbp
  1030ad:	48 83 c4 08          	add    $0x8,%rsp
  1030b1:	5e                   	pop    %rsi
  1030b2:	5f                   	pop    %rdi
  1030b3:	5a                   	pop    %rdx
  1030b4:	59                   	pop    %rcx
  1030b5:	5b                   	pop    %rbx
  1030b6:	58                   	pop    %rax
  1030b7:	48 89 6c 24 38       	mov    %rbp,0x38(%rsp)
  1030bc:	48 cf                	iretq  

00000000001030be <intr_handler_91>:
  1030be:	55                   	push   %rbp
  1030bf:	48 89 e5             	mov    %rsp,%rbp
  1030c2:	50                   	push   %rax
  1030c3:	53                   	push   %rbx
  1030c4:	51                   	push   %rcx
  1030c5:	52                   	push   %rdx
  1030c6:	57                   	push   %rdi
  1030c7:	56                   	push   %rsi
  1030c8:	54                   	push   %rsp
  1030c9:	55                   	push   %rbp
  1030ca:	41 50                	push   %r8
  1030cc:	41 51                	push   %r9
  1030ce:	41 52                	push   %r10
  1030d0:	41 53                	push   %r11
  1030d2:	41 54                	push   %r12
  1030d4:	41 55                	push   %r13
  1030d6:	41 56                	push   %r14
  1030d8:	41 57                	push   %r15
  1030da:	9c                   	pushfq 
  1030db:	bf 5b 00 00 00       	mov    $0x5b,%edi
  1030e0:	e8 73 5c 00 00       	callq  108d58 <intr_handler>
  1030e5:	9d                   	popfq  
  1030e6:	41 5f                	pop    %r15
  1030e8:	41 5e                	pop    %r14
  1030ea:	41 5d                	pop    %r13
  1030ec:	41 5c                	pop    %r12
  1030ee:	41 5b                	pop    %r11
  1030f0:	41 5a                	pop    %r10
  1030f2:	41 59                	pop    %r9
  1030f4:	41 58                	pop    %r8
  1030f6:	5d                   	pop    %rbp
  1030f7:	48 83 c4 08          	add    $0x8,%rsp
  1030fb:	5e                   	pop    %rsi
  1030fc:	5f                   	pop    %rdi
  1030fd:	5a                   	pop    %rdx
  1030fe:	59                   	pop    %rcx
  1030ff:	5b                   	pop    %rbx
  103100:	58                   	pop    %rax
  103101:	48 89 6c 24 38       	mov    %rbp,0x38(%rsp)
  103106:	48 cf                	iretq  

0000000000103108 <intr_handler_92>:
  103108:	55                   	push   %rbp
  103109:	48 89 e5             	mov    %rsp,%rbp
  10310c:	50                   	push   %rax
  10310d:	53                   	push   %rbx
  10310e:	51                   	push   %rcx
  10310f:	52                   	push   %rdx
  103110:	57                   	push   %rdi
  103111:	56                   	push   %rsi
  103112:	54                   	push   %rsp
  103113:	55                   	push   %rbp
  103114:	41 50                	push   %r8
  103116:	41 51                	push   %r9
  103118:	41 52                	push   %r10
  10311a:	41 53                	push   %r11
  10311c:	41 54                	push   %r12
  10311e:	41 55                	push   %r13
  103120:	41 56                	push   %r14
  103122:	41 57                	push   %r15
  103124:	9c                   	pushfq 
  103125:	bf 5c 00 00 00       	mov    $0x5c,%edi
  10312a:	e8 29 5c 00 00       	callq  108d58 <intr_handler>
  10312f:	9d                   	popfq  
  103130:	41 5f                	pop    %r15
  103132:	41 5e                	pop    %r14
  103134:	41 5d                	pop    %r13
  103136:	41 5c                	pop    %r12
  103138:	41 5b                	pop    %r11
  10313a:	41 5a                	pop    %r10
  10313c:	41 59                	pop    %r9
  10313e:	41 58                	pop    %r8
  103140:	5d                   	pop    %rbp
  103141:	48 83 c4 08          	add    $0x8,%rsp
  103145:	5e                   	pop    %rsi
  103146:	5f                   	pop    %rdi
  103147:	5a                   	pop    %rdx
  103148:	59                   	pop    %rcx
  103149:	5b                   	pop    %rbx
  10314a:	58                   	pop    %rax
  10314b:	48 89 6c 24 38       	mov    %rbp,0x38(%rsp)
  103150:	48 cf                	iretq  

0000000000103152 <intr_handler_93>:
  103152:	55                   	push   %rbp
  103153:	48 89 e5             	mov    %rsp,%rbp
  103156:	50                   	push   %rax
  103157:	53                   	push   %rbx
  103158:	51                   	push   %rcx
  103159:	52                   	push   %rdx
  10315a:	57                   	push   %rdi
  10315b:	56                   	push   %rsi
  10315c:	54                   	push   %rsp
  10315d:	55                   	push   %rbp
  10315e:	41 50                	push   %r8
  103160:	41 51                	push   %r9
  103162:	41 52                	push   %r10
  103164:	41 53                	push   %r11
  103166:	41 54                	push   %r12
  103168:	41 55                	push   %r13
  10316a:	41 56                	push   %r14
  10316c:	41 57                	push   %r15
  10316e:	9c                   	pushfq 
  10316f:	bf 5d 00 00 00       	mov    $0x5d,%edi
  103174:	e8 df 5b 00 00       	callq  108d58 <intr_handler>
  103179:	9d                   	popfq  
  10317a:	41 5f                	pop    %r15
  10317c:	41 5e                	pop    %r14
  10317e:	41 5d                	pop    %r13
  103180:	41 5c                	pop    %r12
  103182:	41 5b                	pop    %r11
  103184:	41 5a                	pop    %r10
  103186:	41 59                	pop    %r9
  103188:	41 58                	pop    %r8
  10318a:	5d                   	pop    %rbp
  10318b:	48 83 c4 08          	add    $0x8,%rsp
  10318f:	5e                   	pop    %rsi
  103190:	5f                   	pop    %rdi
  103191:	5a                   	pop    %rdx
  103192:	59                   	pop    %rcx
  103193:	5b                   	pop    %rbx
  103194:	58                   	pop    %rax
  103195:	48 89 6c 24 38       	mov    %rbp,0x38(%rsp)
  10319a:	48 cf                	iretq  

000000000010319c <intr_handler_94>:
  10319c:	55                   	push   %rbp
  10319d:	48 89 e5             	mov    %rsp,%rbp
  1031a0:	50                   	push   %rax
  1031a1:	53                   	push   %rbx
  1031a2:	51                   	push   %rcx
  1031a3:	52                   	push   %rdx
  1031a4:	57                   	push   %rdi
  1031a5:	56                   	push   %rsi
  1031a6:	54                   	push   %rsp
  1031a7:	55                   	push   %rbp
  1031a8:	41 50                	push   %r8
  1031aa:	41 51                	push   %r9
  1031ac:	41 52                	push   %r10
  1031ae:	41 53                	push   %r11
  1031b0:	41 54                	push   %r12
  1031b2:	41 55                	push   %r13
  1031b4:	41 56                	push   %r14
  1031b6:	41 57                	push   %r15
  1031b8:	9c                   	pushfq 
  1031b9:	bf 5e 00 00 00       	mov    $0x5e,%edi
  1031be:	e8 95 5b 00 00       	callq  108d58 <intr_handler>
  1031c3:	9d                   	popfq  
  1031c4:	41 5f                	pop    %r15
  1031c6:	41 5e                	pop    %r14
  1031c8:	41 5d                	pop    %r13
  1031ca:	41 5c                	pop    %r12
  1031cc:	41 5b                	pop    %r11
  1031ce:	41 5a                	pop    %r10
  1031d0:	41 59                	pop    %r9
  1031d2:	41 58                	pop    %r8
  1031d4:	5d                   	pop    %rbp
  1031d5:	48 83 c4 08          	add    $0x8,%rsp
  1031d9:	5e                   	pop    %rsi
  1031da:	5f                   	pop    %rdi
  1031db:	5a                   	pop    %rdx
  1031dc:	59                   	pop    %rcx
  1031dd:	5b                   	pop    %rbx
  1031de:	58                   	pop    %rax
  1031df:	48 89 6c 24 38       	mov    %rbp,0x38(%rsp)
  1031e4:	48 cf                	iretq  

00000000001031e6 <intr_handler_95>:
  1031e6:	55                   	push   %rbp
  1031e7:	48 89 e5             	mov    %rsp,%rbp
  1031ea:	50                   	push   %rax
  1031eb:	53                   	push   %rbx
  1031ec:	51                   	push   %rcx
  1031ed:	52                   	push   %rdx
  1031ee:	57                   	push   %rdi
  1031ef:	56                   	push   %rsi
  1031f0:	54                   	push   %rsp
  1031f1:	55                   	push   %rbp
  1031f2:	41 50                	push   %r8
  1031f4:	41 51                	push   %r9
  1031f6:	41 52                	push   %r10
  1031f8:	41 53                	push   %r11
  1031fa:	41 54                	push   %r12
  1031fc:	41 55                	push   %r13
  1031fe:	41 56                	push   %r14
  103200:	41 57                	push   %r15
  103202:	9c                   	pushfq 
  103203:	bf 5f 00 00 00       	mov    $0x5f,%edi
  103208:	e8 4b 5b 00 00       	callq  108d58 <intr_handler>
  10320d:	9d                   	popfq  
  10320e:	41 5f                	pop    %r15
  103210:	41 5e                	pop    %r14
  103212:	41 5d                	pop    %r13
  103214:	41 5c                	pop    %r12
  103216:	41 5b                	pop    %r11
  103218:	41 5a                	pop    %r10
  10321a:	41 59                	pop    %r9
  10321c:	41 58                	pop    %r8
  10321e:	5d                   	pop    %rbp
  10321f:	48 83 c4 08          	add    $0x8,%rsp
  103223:	5e                   	pop    %rsi
  103224:	5f                   	pop    %rdi
  103225:	5a                   	pop    %rdx
  103226:	59                   	pop    %rcx
  103227:	5b                   	pop    %rbx
  103228:	58                   	pop    %rax
  103229:	48 89 6c 24 38       	mov    %rbp,0x38(%rsp)
  10322e:	48 cf                	iretq  

0000000000103230 <intr_handler_96>:
  103230:	55                   	push   %rbp
  103231:	48 89 e5             	mov    %rsp,%rbp
  103234:	50                   	push   %rax
  103235:	53                   	push   %rbx
  103236:	51                   	push   %rcx
  103237:	52                   	push   %rdx
  103238:	57                   	push   %rdi
  103239:	56                   	push   %rsi
  10323a:	54                   	push   %rsp
  10323b:	55                   	push   %rbp
  10323c:	41 50                	push   %r8
  10323e:	41 51                	push   %r9
  103240:	41 52                	push   %r10
  103242:	41 53                	push   %r11
  103244:	41 54                	push   %r12
  103246:	41 55                	push   %r13
  103248:	41 56                	push   %r14
  10324a:	41 57                	push   %r15
  10324c:	9c                   	pushfq 
  10324d:	bf 60 00 00 00       	mov    $0x60,%edi
  103252:	e8 01 5b 00 00       	callq  108d58 <intr_handler>
  103257:	9d                   	popfq  
  103258:	41 5f                	pop    %r15
  10325a:	41 5e                	pop    %r14
  10325c:	41 5d                	pop    %r13
  10325e:	41 5c                	pop    %r12
  103260:	41 5b                	pop    %r11
  103262:	41 5a                	pop    %r10
  103264:	41 59                	pop    %r9
  103266:	41 58                	pop    %r8
  103268:	5d                   	pop    %rbp
  103269:	48 83 c4 08          	add    $0x8,%rsp
  10326d:	5e                   	pop    %rsi
  10326e:	5f                   	pop    %rdi
  10326f:	5a                   	pop    %rdx
  103270:	59                   	pop    %rcx
  103271:	5b                   	pop    %rbx
  103272:	58                   	pop    %rax
  103273:	48 89 6c 24 38       	mov    %rbp,0x38(%rsp)
  103278:	48 cf                	iretq  

000000000010327a <intr_handler_97>:
  10327a:	55                   	push   %rbp
  10327b:	48 89 e5             	mov    %rsp,%rbp
  10327e:	50                   	push   %rax
  10327f:	53                   	push   %rbx
  103280:	51                   	push   %rcx
  103281:	52                   	push   %rdx
  103282:	57                   	push   %rdi
  103283:	56                   	push   %rsi
  103284:	54                   	push   %rsp
  103285:	55                   	push   %rbp
  103286:	41 50                	push   %r8
  103288:	41 51                	push   %r9
  10328a:	41 52                	push   %r10
  10328c:	41 53                	push   %r11
  10328e:	41 54                	push   %r12
  103290:	41 55                	push   %r13
  103292:	41 56                	push   %r14
  103294:	41 57                	push   %r15
  103296:	9c                   	pushfq 
  103297:	bf 61 00 00 00       	mov    $0x61,%edi
  10329c:	e8 b7 5a 00 00       	callq  108d58 <intr_handler>
  1032a1:	9d                   	popfq  
  1032a2:	41 5f                	pop    %r15
  1032a4:	41 5e                	pop    %r14
  1032a6:	41 5d                	pop    %r13
  1032a8:	41 5c                	pop    %r12
  1032aa:	41 5b                	pop    %r11
  1032ac:	41 5a                	pop    %r10
  1032ae:	41 59                	pop    %r9
  1032b0:	41 58                	pop    %r8
  1032b2:	5d                   	pop    %rbp
  1032b3:	48 83 c4 08          	add    $0x8,%rsp
  1032b7:	5e                   	pop    %rsi
  1032b8:	5f                   	pop    %rdi
  1032b9:	5a                   	pop    %rdx
  1032ba:	59                   	pop    %rcx
  1032bb:	5b                   	pop    %rbx
  1032bc:	58                   	pop    %rax
  1032bd:	48 89 6c 24 38       	mov    %rbp,0x38(%rsp)
  1032c2:	48 cf                	iretq  

00000000001032c4 <intr_handler_98>:
  1032c4:	55                   	push   %rbp
  1032c5:	48 89 e5             	mov    %rsp,%rbp
  1032c8:	50                   	push   %rax
  1032c9:	53                   	push   %rbx
  1032ca:	51                   	push   %rcx
  1032cb:	52                   	push   %rdx
  1032cc:	57                   	push   %rdi
  1032cd:	56                   	push   %rsi
  1032ce:	54                   	push   %rsp
  1032cf:	55                   	push   %rbp
  1032d0:	41 50                	push   %r8
  1032d2:	41 51                	push   %r9
  1032d4:	41 52                	push   %r10
  1032d6:	41 53                	push   %r11
  1032d8:	41 54                	push   %r12
  1032da:	41 55                	push   %r13
  1032dc:	41 56                	push   %r14
  1032de:	41 57                	push   %r15
  1032e0:	9c                   	pushfq 
  1032e1:	bf 62 00 00 00       	mov    $0x62,%edi
  1032e6:	e8 6d 5a 00 00       	callq  108d58 <intr_handler>
  1032eb:	9d                   	popfq  
  1032ec:	41 5f                	pop    %r15
  1032ee:	41 5e                	pop    %r14
  1032f0:	41 5d                	pop    %r13
  1032f2:	41 5c                	pop    %r12
  1032f4:	41 5b                	pop    %r11
  1032f6:	41 5a                	pop    %r10
  1032f8:	41 59                	pop    %r9
  1032fa:	41 58                	pop    %r8
  1032fc:	5d                   	pop    %rbp
  1032fd:	48 83 c4 08          	add    $0x8,%rsp
  103301:	5e                   	pop    %rsi
  103302:	5f                   	pop    %rdi
  103303:	5a                   	pop    %rdx
  103304:	59                   	pop    %rcx
  103305:	5b                   	pop    %rbx
  103306:	58                   	pop    %rax
  103307:	48 89 6c 24 38       	mov    %rbp,0x38(%rsp)
  10330c:	48 cf                	iretq  

000000000010330e <intr_handler_99>:
  10330e:	55                   	push   %rbp
  10330f:	48 89 e5             	mov    %rsp,%rbp
  103312:	50                   	push   %rax
  103313:	53                   	push   %rbx
  103314:	51                   	push   %rcx
  103315:	52                   	push   %rdx
  103316:	57                   	push   %rdi
  103317:	56                   	push   %rsi
  103318:	54                   	push   %rsp
  103319:	55                   	push   %rbp
  10331a:	41 50                	push   %r8
  10331c:	41 51                	push   %r9
  10331e:	41 52                	push   %r10
  103320:	41 53                	push   %r11
  103322:	41 54                	push   %r12
  103324:	41 55                	push   %r13
  103326:	41 56                	push   %r14
  103328:	41 57                	push   %r15
  10332a:	9c                   	pushfq 
  10332b:	bf 63 00 00 00       	mov    $0x63,%edi
  103330:	e8 23 5a 00 00       	callq  108d58 <intr_handler>
  103335:	9d                   	popfq  
  103336:	41 5f                	pop    %r15
  103338:	41 5e                	pop    %r14
  10333a:	41 5d                	pop    %r13
  10333c:	41 5c                	pop    %r12
  10333e:	41 5b                	pop    %r11
  103340:	41 5a                	pop    %r10
  103342:	41 59                	pop    %r9
  103344:	41 58                	pop    %r8
  103346:	5d                   	pop    %rbp
  103347:	48 83 c4 08          	add    $0x8,%rsp
  10334b:	5e                   	pop    %rsi
  10334c:	5f                   	pop    %rdi
  10334d:	5a                   	pop    %rdx
  10334e:	59                   	pop    %rcx
  10334f:	5b                   	pop    %rbx
  103350:	58                   	pop    %rax
  103351:	48 89 6c 24 38       	mov    %rbp,0x38(%rsp)
  103356:	48 cf                	iretq  

0000000000103358 <intr_handler_100>:
  103358:	55                   	push   %rbp
  103359:	48 89 e5             	mov    %rsp,%rbp
  10335c:	50                   	push   %rax
  10335d:	53                   	push   %rbx
  10335e:	51                   	push   %rcx
  10335f:	52                   	push   %rdx
  103360:	57                   	push   %rdi
  103361:	56                   	push   %rsi
  103362:	54                   	push   %rsp
  103363:	55                   	push   %rbp
  103364:	41 50                	push   %r8
  103366:	41 51                	push   %r9
  103368:	41 52                	push   %r10
  10336a:	41 53                	push   %r11
  10336c:	41 54                	push   %r12
  10336e:	41 55                	push   %r13
  103370:	41 56                	push   %r14
  103372:	41 57                	push   %r15
  103374:	9c                   	pushfq 
  103375:	bf 64 00 00 00       	mov    $0x64,%edi
  10337a:	e8 d9 59 00 00       	callq  108d58 <intr_handler>
  10337f:	9d                   	popfq  
  103380:	41 5f                	pop    %r15
  103382:	41 5e                	pop    %r14
  103384:	41 5d                	pop    %r13
  103386:	41 5c                	pop    %r12
  103388:	41 5b                	pop    %r11
  10338a:	41 5a                	pop    %r10
  10338c:	41 59                	pop    %r9
  10338e:	41 58                	pop    %r8
  103390:	5d                   	pop    %rbp
  103391:	48 83 c4 08          	add    $0x8,%rsp
  103395:	5e                   	pop    %rsi
  103396:	5f                   	pop    %rdi
  103397:	5a                   	pop    %rdx
  103398:	59                   	pop    %rcx
  103399:	5b                   	pop    %rbx
  10339a:	58                   	pop    %rax
  10339b:	48 89 6c 24 38       	mov    %rbp,0x38(%rsp)
  1033a0:	48 cf                	iretq  

00000000001033a2 <intr_handler_101>:
  1033a2:	55                   	push   %rbp
  1033a3:	48 89 e5             	mov    %rsp,%rbp
  1033a6:	50                   	push   %rax
  1033a7:	53                   	push   %rbx
  1033a8:	51                   	push   %rcx
  1033a9:	52                   	push   %rdx
  1033aa:	57                   	push   %rdi
  1033ab:	56                   	push   %rsi
  1033ac:	54                   	push   %rsp
  1033ad:	55                   	push   %rbp
  1033ae:	41 50                	push   %r8
  1033b0:	41 51                	push   %r9
  1033b2:	41 52                	push   %r10
  1033b4:	41 53                	push   %r11
  1033b6:	41 54                	push   %r12
  1033b8:	41 55                	push   %r13
  1033ba:	41 56                	push   %r14
  1033bc:	41 57                	push   %r15
  1033be:	9c                   	pushfq 
  1033bf:	bf 65 00 00 00       	mov    $0x65,%edi
  1033c4:	e8 8f 59 00 00       	callq  108d58 <intr_handler>
  1033c9:	9d                   	popfq  
  1033ca:	41 5f                	pop    %r15
  1033cc:	41 5e                	pop    %r14
  1033ce:	41 5d                	pop    %r13
  1033d0:	41 5c                	pop    %r12
  1033d2:	41 5b                	pop    %r11
  1033d4:	41 5a                	pop    %r10
  1033d6:	41 59                	pop    %r9
  1033d8:	41 58                	pop    %r8
  1033da:	5d                   	pop    %rbp
  1033db:	48 83 c4 08          	add    $0x8,%rsp
  1033df:	5e                   	pop    %rsi
  1033e0:	5f                   	pop    %rdi
  1033e1:	5a                   	pop    %rdx
  1033e2:	59                   	pop    %rcx
  1033e3:	5b                   	pop    %rbx
  1033e4:	58                   	pop    %rax
  1033e5:	48 89 6c 24 38       	mov    %rbp,0x38(%rsp)
  1033ea:	48 cf                	iretq  

00000000001033ec <intr_handler_102>:
  1033ec:	55                   	push   %rbp
  1033ed:	48 89 e5             	mov    %rsp,%rbp
  1033f0:	50                   	push   %rax
  1033f1:	53                   	push   %rbx
  1033f2:	51                   	push   %rcx
  1033f3:	52                   	push   %rdx
  1033f4:	57                   	push   %rdi
  1033f5:	56                   	push   %rsi
  1033f6:	54                   	push   %rsp
  1033f7:	55                   	push   %rbp
  1033f8:	41 50                	push   %r8
  1033fa:	41 51                	push   %r9
  1033fc:	41 52                	push   %r10
  1033fe:	41 53                	push   %r11
  103400:	41 54                	push   %r12
  103402:	41 55                	push   %r13
  103404:	41 56                	push   %r14
  103406:	41 57                	push   %r15
  103408:	9c                   	pushfq 
  103409:	bf 66 00 00 00       	mov    $0x66,%edi
  10340e:	e8 45 59 00 00       	callq  108d58 <intr_handler>
  103413:	9d                   	popfq  
  103414:	41 5f                	pop    %r15
  103416:	41 5e                	pop    %r14
  103418:	41 5d                	pop    %r13
  10341a:	41 5c                	pop    %r12
  10341c:	41 5b                	pop    %r11
  10341e:	41 5a                	pop    %r10
  103420:	41 59                	pop    %r9
  103422:	41 58                	pop    %r8
  103424:	5d                   	pop    %rbp
  103425:	48 83 c4 08          	add    $0x8,%rsp
  103429:	5e                   	pop    %rsi
  10342a:	5f                   	pop    %rdi
  10342b:	5a                   	pop    %rdx
  10342c:	59                   	pop    %rcx
  10342d:	5b                   	pop    %rbx
  10342e:	58                   	pop    %rax
  10342f:	48 89 6c 24 38       	mov    %rbp,0x38(%rsp)
  103434:	48 cf                	iretq  

0000000000103436 <intr_handler_103>:
  103436:	55                   	push   %rbp
  103437:	48 89 e5             	mov    %rsp,%rbp
  10343a:	50                   	push   %rax
  10343b:	53                   	push   %rbx
  10343c:	51                   	push   %rcx
  10343d:	52                   	push   %rdx
  10343e:	57                   	push   %rdi
  10343f:	56                   	push   %rsi
  103440:	54                   	push   %rsp
  103441:	55                   	push   %rbp
  103442:	41 50                	push   %r8
  103444:	41 51                	push   %r9
  103446:	41 52                	push   %r10
  103448:	41 53                	push   %r11
  10344a:	41 54                	push   %r12
  10344c:	41 55                	push   %r13
  10344e:	41 56                	push   %r14
  103450:	41 57                	push   %r15
  103452:	9c                   	pushfq 
  103453:	bf 67 00 00 00       	mov    $0x67,%edi
  103458:	e8 fb 58 00 00       	callq  108d58 <intr_handler>
  10345d:	9d                   	popfq  
  10345e:	41 5f                	pop    %r15
  103460:	41 5e                	pop    %r14
  103462:	41 5d                	pop    %r13
  103464:	41 5c                	pop    %r12
  103466:	41 5b                	pop    %r11
  103468:	41 5a                	pop    %r10
  10346a:	41 59                	pop    %r9
  10346c:	41 58                	pop    %r8
  10346e:	5d                   	pop    %rbp
  10346f:	48 83 c4 08          	add    $0x8,%rsp
  103473:	5e                   	pop    %rsi
  103474:	5f                   	pop    %rdi
  103475:	5a                   	pop    %rdx
  103476:	59                   	pop    %rcx
  103477:	5b                   	pop    %rbx
  103478:	58                   	pop    %rax
  103479:	48 89 6c 24 38       	mov    %rbp,0x38(%rsp)
  10347e:	48 cf                	iretq  

0000000000103480 <intr_handler_104>:
  103480:	55                   	push   %rbp
  103481:	48 89 e5             	mov    %rsp,%rbp
  103484:	50                   	push   %rax
  103485:	53                   	push   %rbx
  103486:	51                   	push   %rcx
  103487:	52                   	push   %rdx
  103488:	57                   	push   %rdi
  103489:	56                   	push   %rsi
  10348a:	54                   	push   %rsp
  10348b:	55                   	push   %rbp
  10348c:	41 50                	push   %r8
  10348e:	41 51                	push   %r9
  103490:	41 52                	push   %r10
  103492:	41 53                	push   %r11
  103494:	41 54                	push   %r12
  103496:	41 55                	push   %r13
  103498:	41 56                	push   %r14
  10349a:	41 57                	push   %r15
  10349c:	9c                   	pushfq 
  10349d:	bf 68 00 00 00       	mov    $0x68,%edi
  1034a2:	e8 b1 58 00 00       	callq  108d58 <intr_handler>
  1034a7:	9d                   	popfq  
  1034a8:	41 5f                	pop    %r15
  1034aa:	41 5e                	pop    %r14
  1034ac:	41 5d                	pop    %r13
  1034ae:	41 5c                	pop    %r12
  1034b0:	41 5b                	pop    %r11
  1034b2:	41 5a                	pop    %r10
  1034b4:	41 59                	pop    %r9
  1034b6:	41 58                	pop    %r8
  1034b8:	5d                   	pop    %rbp
  1034b9:	48 83 c4 08          	add    $0x8,%rsp
  1034bd:	5e                   	pop    %rsi
  1034be:	5f                   	pop    %rdi
  1034bf:	5a                   	pop    %rdx
  1034c0:	59                   	pop    %rcx
  1034c1:	5b                   	pop    %rbx
  1034c2:	58                   	pop    %rax
  1034c3:	48 89 6c 24 38       	mov    %rbp,0x38(%rsp)
  1034c8:	48 cf                	iretq  

00000000001034ca <intr_handler_105>:
  1034ca:	55                   	push   %rbp
  1034cb:	48 89 e5             	mov    %rsp,%rbp
  1034ce:	50                   	push   %rax
  1034cf:	53                   	push   %rbx
  1034d0:	51                   	push   %rcx
  1034d1:	52                   	push   %rdx
  1034d2:	57                   	push   %rdi
  1034d3:	56                   	push   %rsi
  1034d4:	54                   	push   %rsp
  1034d5:	55                   	push   %rbp
  1034d6:	41 50                	push   %r8
  1034d8:	41 51                	push   %r9
  1034da:	41 52                	push   %r10
  1034dc:	41 53                	push   %r11
  1034de:	41 54                	push   %r12
  1034e0:	41 55                	push   %r13
  1034e2:	41 56                	push   %r14
  1034e4:	41 57                	push   %r15
  1034e6:	9c                   	pushfq 
  1034e7:	bf 69 00 00 00       	mov    $0x69,%edi
  1034ec:	e8 67 58 00 00       	callq  108d58 <intr_handler>
  1034f1:	9d                   	popfq  
  1034f2:	41 5f                	pop    %r15
  1034f4:	41 5e                	pop    %r14
  1034f6:	41 5d                	pop    %r13
  1034f8:	41 5c                	pop    %r12
  1034fa:	41 5b                	pop    %r11
  1034fc:	41 5a                	pop    %r10
  1034fe:	41 59                	pop    %r9
  103500:	41 58                	pop    %r8
  103502:	5d                   	pop    %rbp
  103503:	48 83 c4 08          	add    $0x8,%rsp
  103507:	5e                   	pop    %rsi
  103508:	5f                   	pop    %rdi
  103509:	5a                   	pop    %rdx
  10350a:	59                   	pop    %rcx
  10350b:	5b                   	pop    %rbx
  10350c:	58                   	pop    %rax
  10350d:	48 89 6c 24 38       	mov    %rbp,0x38(%rsp)
  103512:	48 cf                	iretq  

0000000000103514 <intr_handler_106>:
  103514:	55                   	push   %rbp
  103515:	48 89 e5             	mov    %rsp,%rbp
  103518:	50                   	push   %rax
  103519:	53                   	push   %rbx
  10351a:	51                   	push   %rcx
  10351b:	52                   	push   %rdx
  10351c:	57                   	push   %rdi
  10351d:	56                   	push   %rsi
  10351e:	54                   	push   %rsp
  10351f:	55                   	push   %rbp
  103520:	41 50                	push   %r8
  103522:	41 51                	push   %r9
  103524:	41 52                	push   %r10
  103526:	41 53                	push   %r11
  103528:	41 54                	push   %r12
  10352a:	41 55                	push   %r13
  10352c:	41 56                	push   %r14
  10352e:	41 57                	push   %r15
  103530:	9c                   	pushfq 
  103531:	bf 6a 00 00 00       	mov    $0x6a,%edi
  103536:	e8 1d 58 00 00       	callq  108d58 <intr_handler>
  10353b:	9d                   	popfq  
  10353c:	41 5f                	pop    %r15
  10353e:	41 5e                	pop    %r14
  103540:	41 5d                	pop    %r13
  103542:	41 5c                	pop    %r12
  103544:	41 5b                	pop    %r11
  103546:	41 5a                	pop    %r10
  103548:	41 59                	pop    %r9
  10354a:	41 58                	pop    %r8
  10354c:	5d                   	pop    %rbp
  10354d:	48 83 c4 08          	add    $0x8,%rsp
  103551:	5e                   	pop    %rsi
  103552:	5f                   	pop    %rdi
  103553:	5a                   	pop    %rdx
  103554:	59                   	pop    %rcx
  103555:	5b                   	pop    %rbx
  103556:	58                   	pop    %rax
  103557:	48 89 6c 24 38       	mov    %rbp,0x38(%rsp)
  10355c:	48 cf                	iretq  

000000000010355e <intr_handler_107>:
  10355e:	55                   	push   %rbp
  10355f:	48 89 e5             	mov    %rsp,%rbp
  103562:	50                   	push   %rax
  103563:	53                   	push   %rbx
  103564:	51                   	push   %rcx
  103565:	52                   	push   %rdx
  103566:	57                   	push   %rdi
  103567:	56                   	push   %rsi
  103568:	54                   	push   %rsp
  103569:	55                   	push   %rbp
  10356a:	41 50                	push   %r8
  10356c:	41 51                	push   %r9
  10356e:	41 52                	push   %r10
  103570:	41 53                	push   %r11
  103572:	41 54                	push   %r12
  103574:	41 55                	push   %r13
  103576:	41 56                	push   %r14
  103578:	41 57                	push   %r15
  10357a:	9c                   	pushfq 
  10357b:	bf 6b 00 00 00       	mov    $0x6b,%edi
  103580:	e8 d3 57 00 00       	callq  108d58 <intr_handler>
  103585:	9d                   	popfq  
  103586:	41 5f                	pop    %r15
  103588:	41 5e                	pop    %r14
  10358a:	41 5d                	pop    %r13
  10358c:	41 5c                	pop    %r12
  10358e:	41 5b                	pop    %r11
  103590:	41 5a                	pop    %r10
  103592:	41 59                	pop    %r9
  103594:	41 58                	pop    %r8
  103596:	5d                   	pop    %rbp
  103597:	48 83 c4 08          	add    $0x8,%rsp
  10359b:	5e                   	pop    %rsi
  10359c:	5f                   	pop    %rdi
  10359d:	5a                   	pop    %rdx
  10359e:	59                   	pop    %rcx
  10359f:	5b                   	pop    %rbx
  1035a0:	58                   	pop    %rax
  1035a1:	48 89 6c 24 38       	mov    %rbp,0x38(%rsp)
  1035a6:	48 cf                	iretq  

00000000001035a8 <intr_handler_108>:
  1035a8:	55                   	push   %rbp
  1035a9:	48 89 e5             	mov    %rsp,%rbp
  1035ac:	50                   	push   %rax
  1035ad:	53                   	push   %rbx
  1035ae:	51                   	push   %rcx
  1035af:	52                   	push   %rdx
  1035b0:	57                   	push   %rdi
  1035b1:	56                   	push   %rsi
  1035b2:	54                   	push   %rsp
  1035b3:	55                   	push   %rbp
  1035b4:	41 50                	push   %r8
  1035b6:	41 51                	push   %r9
  1035b8:	41 52                	push   %r10
  1035ba:	41 53                	push   %r11
  1035bc:	41 54                	push   %r12
  1035be:	41 55                	push   %r13
  1035c0:	41 56                	push   %r14
  1035c2:	41 57                	push   %r15
  1035c4:	9c                   	pushfq 
  1035c5:	bf 6c 00 00 00       	mov    $0x6c,%edi
  1035ca:	e8 89 57 00 00       	callq  108d58 <intr_handler>
  1035cf:	9d                   	popfq  
  1035d0:	41 5f                	pop    %r15
  1035d2:	41 5e                	pop    %r14
  1035d4:	41 5d                	pop    %r13
  1035d6:	41 5c                	pop    %r12
  1035d8:	41 5b                	pop    %r11
  1035da:	41 5a                	pop    %r10
  1035dc:	41 59                	pop    %r9
  1035de:	41 58                	pop    %r8
  1035e0:	5d                   	pop    %rbp
  1035e1:	48 83 c4 08          	add    $0x8,%rsp
  1035e5:	5e                   	pop    %rsi
  1035e6:	5f                   	pop    %rdi
  1035e7:	5a                   	pop    %rdx
  1035e8:	59                   	pop    %rcx
  1035e9:	5b                   	pop    %rbx
  1035ea:	58                   	pop    %rax
  1035eb:	48 89 6c 24 38       	mov    %rbp,0x38(%rsp)
  1035f0:	48 cf                	iretq  

00000000001035f2 <intr_handler_109>:
  1035f2:	55                   	push   %rbp
  1035f3:	48 89 e5             	mov    %rsp,%rbp
  1035f6:	50                   	push   %rax
  1035f7:	53                   	push   %rbx
  1035f8:	51                   	push   %rcx
  1035f9:	52                   	push   %rdx
  1035fa:	57                   	push   %rdi
  1035fb:	56                   	push   %rsi
  1035fc:	54                   	push   %rsp
  1035fd:	55                   	push   %rbp
  1035fe:	41 50                	push   %r8
  103600:	41 51                	push   %r9
  103602:	41 52                	push   %r10
  103604:	41 53                	push   %r11
  103606:	41 54                	push   %r12
  103608:	41 55                	push   %r13
  10360a:	41 56                	push   %r14
  10360c:	41 57                	push   %r15
  10360e:	9c                   	pushfq 
  10360f:	bf 6d 00 00 00       	mov    $0x6d,%edi
  103614:	e8 3f 57 00 00       	callq  108d58 <intr_handler>
  103619:	9d                   	popfq  
  10361a:	41 5f                	pop    %r15
  10361c:	41 5e                	pop    %r14
  10361e:	41 5d                	pop    %r13
  103620:	41 5c                	pop    %r12
  103622:	41 5b                	pop    %r11
  103624:	41 5a                	pop    %r10
  103626:	41 59                	pop    %r9
  103628:	41 58                	pop    %r8
  10362a:	5d                   	pop    %rbp
  10362b:	48 83 c4 08          	add    $0x8,%rsp
  10362f:	5e                   	pop    %rsi
  103630:	5f                   	pop    %rdi
  103631:	5a                   	pop    %rdx
  103632:	59                   	pop    %rcx
  103633:	5b                   	pop    %rbx
  103634:	58                   	pop    %rax
  103635:	48 89 6c 24 38       	mov    %rbp,0x38(%rsp)
  10363a:	48 cf                	iretq  

000000000010363c <intr_handler_110>:
  10363c:	55                   	push   %rbp
  10363d:	48 89 e5             	mov    %rsp,%rbp
  103640:	50                   	push   %rax
  103641:	53                   	push   %rbx
  103642:	51                   	push   %rcx
  103643:	52                   	push   %rdx
  103644:	57                   	push   %rdi
  103645:	56                   	push   %rsi
  103646:	54                   	push   %rsp
  103647:	55                   	push   %rbp
  103648:	41 50                	push   %r8
  10364a:	41 51                	push   %r9
  10364c:	41 52                	push   %r10
  10364e:	41 53                	push   %r11
  103650:	41 54                	push   %r12
  103652:	41 55                	push   %r13
  103654:	41 56                	push   %r14
  103656:	41 57                	push   %r15
  103658:	9c                   	pushfq 
  103659:	bf 6e 00 00 00       	mov    $0x6e,%edi
  10365e:	e8 f5 56 00 00       	callq  108d58 <intr_handler>
  103663:	9d                   	popfq  
  103664:	41 5f                	pop    %r15
  103666:	41 5e                	pop    %r14
  103668:	41 5d                	pop    %r13
  10366a:	41 5c                	pop    %r12
  10366c:	41 5b                	pop    %r11
  10366e:	41 5a                	pop    %r10
  103670:	41 59                	pop    %r9
  103672:	41 58                	pop    %r8
  103674:	5d                   	pop    %rbp
  103675:	48 83 c4 08          	add    $0x8,%rsp
  103679:	5e                   	pop    %rsi
  10367a:	5f                   	pop    %rdi
  10367b:	5a                   	pop    %rdx
  10367c:	59                   	pop    %rcx
  10367d:	5b                   	pop    %rbx
  10367e:	58                   	pop    %rax
  10367f:	48 89 6c 24 38       	mov    %rbp,0x38(%rsp)
  103684:	48 cf                	iretq  

0000000000103686 <intr_handler_111>:
  103686:	55                   	push   %rbp
  103687:	48 89 e5             	mov    %rsp,%rbp
  10368a:	50                   	push   %rax
  10368b:	53                   	push   %rbx
  10368c:	51                   	push   %rcx
  10368d:	52                   	push   %rdx
  10368e:	57                   	push   %rdi
  10368f:	56                   	push   %rsi
  103690:	54                   	push   %rsp
  103691:	55                   	push   %rbp
  103692:	41 50                	push   %r8
  103694:	41 51                	push   %r9
  103696:	41 52                	push   %r10
  103698:	41 53                	push   %r11
  10369a:	41 54                	push   %r12
  10369c:	41 55                	push   %r13
  10369e:	41 56                	push   %r14
  1036a0:	41 57                	push   %r15
  1036a2:	9c                   	pushfq 
  1036a3:	bf 6f 00 00 00       	mov    $0x6f,%edi
  1036a8:	e8 ab 56 00 00       	callq  108d58 <intr_handler>
  1036ad:	9d                   	popfq  
  1036ae:	41 5f                	pop    %r15
  1036b0:	41 5e                	pop    %r14
  1036b2:	41 5d                	pop    %r13
  1036b4:	41 5c                	pop    %r12
  1036b6:	41 5b                	pop    %r11
  1036b8:	41 5a                	pop    %r10
  1036ba:	41 59                	pop    %r9
  1036bc:	41 58                	pop    %r8
  1036be:	5d                   	pop    %rbp
  1036bf:	48 83 c4 08          	add    $0x8,%rsp
  1036c3:	5e                   	pop    %rsi
  1036c4:	5f                   	pop    %rdi
  1036c5:	5a                   	pop    %rdx
  1036c6:	59                   	pop    %rcx
  1036c7:	5b                   	pop    %rbx
  1036c8:	58                   	pop    %rax
  1036c9:	48 89 6c 24 38       	mov    %rbp,0x38(%rsp)
  1036ce:	48 cf                	iretq  

00000000001036d0 <intr_handler_112>:
  1036d0:	55                   	push   %rbp
  1036d1:	48 89 e5             	mov    %rsp,%rbp
  1036d4:	50                   	push   %rax
  1036d5:	53                   	push   %rbx
  1036d6:	51                   	push   %rcx
  1036d7:	52                   	push   %rdx
  1036d8:	57                   	push   %rdi
  1036d9:	56                   	push   %rsi
  1036da:	54                   	push   %rsp
  1036db:	55                   	push   %rbp
  1036dc:	41 50                	push   %r8
  1036de:	41 51                	push   %r9
  1036e0:	41 52                	push   %r10
  1036e2:	41 53                	push   %r11
  1036e4:	41 54                	push   %r12
  1036e6:	41 55                	push   %r13
  1036e8:	41 56                	push   %r14
  1036ea:	41 57                	push   %r15
  1036ec:	9c                   	pushfq 
  1036ed:	bf 70 00 00 00       	mov    $0x70,%edi
  1036f2:	e8 61 56 00 00       	callq  108d58 <intr_handler>
  1036f7:	9d                   	popfq  
  1036f8:	41 5f                	pop    %r15
  1036fa:	41 5e                	pop    %r14
  1036fc:	41 5d                	pop    %r13
  1036fe:	41 5c                	pop    %r12
  103700:	41 5b                	pop    %r11
  103702:	41 5a                	pop    %r10
  103704:	41 59                	pop    %r9
  103706:	41 58                	pop    %r8
  103708:	5d                   	pop    %rbp
  103709:	48 83 c4 08          	add    $0x8,%rsp
  10370d:	5e                   	pop    %rsi
  10370e:	5f                   	pop    %rdi
  10370f:	5a                   	pop    %rdx
  103710:	59                   	pop    %rcx
  103711:	5b                   	pop    %rbx
  103712:	58                   	pop    %rax
  103713:	48 89 6c 24 38       	mov    %rbp,0x38(%rsp)
  103718:	48 cf                	iretq  

000000000010371a <intr_handler_113>:
  10371a:	55                   	push   %rbp
  10371b:	48 89 e5             	mov    %rsp,%rbp
  10371e:	50                   	push   %rax
  10371f:	53                   	push   %rbx
  103720:	51                   	push   %rcx
  103721:	52                   	push   %rdx
  103722:	57                   	push   %rdi
  103723:	56                   	push   %rsi
  103724:	54                   	push   %rsp
  103725:	55                   	push   %rbp
  103726:	41 50                	push   %r8
  103728:	41 51                	push   %r9
  10372a:	41 52                	push   %r10
  10372c:	41 53                	push   %r11
  10372e:	41 54                	push   %r12
  103730:	41 55                	push   %r13
  103732:	41 56                	push   %r14
  103734:	41 57                	push   %r15
  103736:	9c                   	pushfq 
  103737:	bf 71 00 00 00       	mov    $0x71,%edi
  10373c:	e8 17 56 00 00       	callq  108d58 <intr_handler>
  103741:	9d                   	popfq  
  103742:	41 5f                	pop    %r15
  103744:	41 5e                	pop    %r14
  103746:	41 5d                	pop    %r13
  103748:	41 5c                	pop    %r12
  10374a:	41 5b                	pop    %r11
  10374c:	41 5a                	pop    %r10
  10374e:	41 59                	pop    %r9
  103750:	41 58                	pop    %r8
  103752:	5d                   	pop    %rbp
  103753:	48 83 c4 08          	add    $0x8,%rsp
  103757:	5e                   	pop    %rsi
  103758:	5f                   	pop    %rdi
  103759:	5a                   	pop    %rdx
  10375a:	59                   	pop    %rcx
  10375b:	5b                   	pop    %rbx
  10375c:	58                   	pop    %rax
  10375d:	48 89 6c 24 38       	mov    %rbp,0x38(%rsp)
  103762:	48 cf                	iretq  

0000000000103764 <intr_handler_114>:
  103764:	55                   	push   %rbp
  103765:	48 89 e5             	mov    %rsp,%rbp
  103768:	50                   	push   %rax
  103769:	53                   	push   %rbx
  10376a:	51                   	push   %rcx
  10376b:	52                   	push   %rdx
  10376c:	57                   	push   %rdi
  10376d:	56                   	push   %rsi
  10376e:	54                   	push   %rsp
  10376f:	55                   	push   %rbp
  103770:	41 50                	push   %r8
  103772:	41 51                	push   %r9
  103774:	41 52                	push   %r10
  103776:	41 53                	push   %r11
  103778:	41 54                	push   %r12
  10377a:	41 55                	push   %r13
  10377c:	41 56                	push   %r14
  10377e:	41 57                	push   %r15
  103780:	9c                   	pushfq 
  103781:	bf 72 00 00 00       	mov    $0x72,%edi
  103786:	e8 cd 55 00 00       	callq  108d58 <intr_handler>
  10378b:	9d                   	popfq  
  10378c:	41 5f                	pop    %r15
  10378e:	41 5e                	pop    %r14
  103790:	41 5d                	pop    %r13
  103792:	41 5c                	pop    %r12
  103794:	41 5b                	pop    %r11
  103796:	41 5a                	pop    %r10
  103798:	41 59                	pop    %r9
  10379a:	41 58                	pop    %r8
  10379c:	5d                   	pop    %rbp
  10379d:	48 83 c4 08          	add    $0x8,%rsp
  1037a1:	5e                   	pop    %rsi
  1037a2:	5f                   	pop    %rdi
  1037a3:	5a                   	pop    %rdx
  1037a4:	59                   	pop    %rcx
  1037a5:	5b                   	pop    %rbx
  1037a6:	58                   	pop    %rax
  1037a7:	48 89 6c 24 38       	mov    %rbp,0x38(%rsp)
  1037ac:	48 cf                	iretq  

00000000001037ae <intr_handler_115>:
  1037ae:	55                   	push   %rbp
  1037af:	48 89 e5             	mov    %rsp,%rbp
  1037b2:	50                   	push   %rax
  1037b3:	53                   	push   %rbx
  1037b4:	51                   	push   %rcx
  1037b5:	52                   	push   %rdx
  1037b6:	57                   	push   %rdi
  1037b7:	56                   	push   %rsi
  1037b8:	54                   	push   %rsp
  1037b9:	55                   	push   %rbp
  1037ba:	41 50                	push   %r8
  1037bc:	41 51                	push   %r9
  1037be:	41 52                	push   %r10
  1037c0:	41 53                	push   %r11
  1037c2:	41 54                	push   %r12
  1037c4:	41 55                	push   %r13
  1037c6:	41 56                	push   %r14
  1037c8:	41 57                	push   %r15
  1037ca:	9c                   	pushfq 
  1037cb:	bf 73 00 00 00       	mov    $0x73,%edi
  1037d0:	e8 83 55 00 00       	callq  108d58 <intr_handler>
  1037d5:	9d                   	popfq  
  1037d6:	41 5f                	pop    %r15
  1037d8:	41 5e                	pop    %r14
  1037da:	41 5d                	pop    %r13
  1037dc:	41 5c                	pop    %r12
  1037de:	41 5b                	pop    %r11
  1037e0:	41 5a                	pop    %r10
  1037e2:	41 59                	pop    %r9
  1037e4:	41 58                	pop    %r8
  1037e6:	5d                   	pop    %rbp
  1037e7:	48 83 c4 08          	add    $0x8,%rsp
  1037eb:	5e                   	pop    %rsi
  1037ec:	5f                   	pop    %rdi
  1037ed:	5a                   	pop    %rdx
  1037ee:	59                   	pop    %rcx
  1037ef:	5b                   	pop    %rbx
  1037f0:	58                   	pop    %rax
  1037f1:	48 89 6c 24 38       	mov    %rbp,0x38(%rsp)
  1037f6:	48 cf                	iretq  

00000000001037f8 <intr_handler_116>:
  1037f8:	55                   	push   %rbp
  1037f9:	48 89 e5             	mov    %rsp,%rbp
  1037fc:	50                   	push   %rax
  1037fd:	53                   	push   %rbx
  1037fe:	51                   	push   %rcx
  1037ff:	52                   	push   %rdx
  103800:	57                   	push   %rdi
  103801:	56                   	push   %rsi
  103802:	54                   	push   %rsp
  103803:	55                   	push   %rbp
  103804:	41 50                	push   %r8
  103806:	41 51                	push   %r9
  103808:	41 52                	push   %r10
  10380a:	41 53                	push   %r11
  10380c:	41 54                	push   %r12
  10380e:	41 55                	push   %r13
  103810:	41 56                	push   %r14
  103812:	41 57                	push   %r15
  103814:	9c                   	pushfq 
  103815:	bf 74 00 00 00       	mov    $0x74,%edi
  10381a:	e8 39 55 00 00       	callq  108d58 <intr_handler>
  10381f:	9d                   	popfq  
  103820:	41 5f                	pop    %r15
  103822:	41 5e                	pop    %r14
  103824:	41 5d                	pop    %r13
  103826:	41 5c                	pop    %r12
  103828:	41 5b                	pop    %r11
  10382a:	41 5a                	pop    %r10
  10382c:	41 59                	pop    %r9
  10382e:	41 58                	pop    %r8
  103830:	5d                   	pop    %rbp
  103831:	48 83 c4 08          	add    $0x8,%rsp
  103835:	5e                   	pop    %rsi
  103836:	5f                   	pop    %rdi
  103837:	5a                   	pop    %rdx
  103838:	59                   	pop    %rcx
  103839:	5b                   	pop    %rbx
  10383a:	58                   	pop    %rax
  10383b:	48 89 6c 24 38       	mov    %rbp,0x38(%rsp)
  103840:	48 cf                	iretq  

0000000000103842 <intr_handler_117>:
  103842:	55                   	push   %rbp
  103843:	48 89 e5             	mov    %rsp,%rbp
  103846:	50                   	push   %rax
  103847:	53                   	push   %rbx
  103848:	51                   	push   %rcx
  103849:	52                   	push   %rdx
  10384a:	57                   	push   %rdi
  10384b:	56                   	push   %rsi
  10384c:	54                   	push   %rsp
  10384d:	55                   	push   %rbp
  10384e:	41 50                	push   %r8
  103850:	41 51                	push   %r9
  103852:	41 52                	push   %r10
  103854:	41 53                	push   %r11
  103856:	41 54                	push   %r12
  103858:	41 55                	push   %r13
  10385a:	41 56                	push   %r14
  10385c:	41 57                	push   %r15
  10385e:	9c                   	pushfq 
  10385f:	bf 75 00 00 00       	mov    $0x75,%edi
  103864:	e8 ef 54 00 00       	callq  108d58 <intr_handler>
  103869:	9d                   	popfq  
  10386a:	41 5f                	pop    %r15
  10386c:	41 5e                	pop    %r14
  10386e:	41 5d                	pop    %r13
  103870:	41 5c                	pop    %r12
  103872:	41 5b                	pop    %r11
  103874:	41 5a                	pop    %r10
  103876:	41 59                	pop    %r9
  103878:	41 58                	pop    %r8
  10387a:	5d                   	pop    %rbp
  10387b:	48 83 c4 08          	add    $0x8,%rsp
  10387f:	5e                   	pop    %rsi
  103880:	5f                   	pop    %rdi
  103881:	5a                   	pop    %rdx
  103882:	59                   	pop    %rcx
  103883:	5b                   	pop    %rbx
  103884:	58                   	pop    %rax
  103885:	48 89 6c 24 38       	mov    %rbp,0x38(%rsp)
  10388a:	48 cf                	iretq  

000000000010388c <intr_handler_118>:
  10388c:	55                   	push   %rbp
  10388d:	48 89 e5             	mov    %rsp,%rbp
  103890:	50                   	push   %rax
  103891:	53                   	push   %rbx
  103892:	51                   	push   %rcx
  103893:	52                   	push   %rdx
  103894:	57                   	push   %rdi
  103895:	56                   	push   %rsi
  103896:	54                   	push   %rsp
  103897:	55                   	push   %rbp
  103898:	41 50                	push   %r8
  10389a:	41 51                	push   %r9
  10389c:	41 52                	push   %r10
  10389e:	41 53                	push   %r11
  1038a0:	41 54                	push   %r12
  1038a2:	41 55                	push   %r13
  1038a4:	41 56                	push   %r14
  1038a6:	41 57                	push   %r15
  1038a8:	9c                   	pushfq 
  1038a9:	bf 76 00 00 00       	mov    $0x76,%edi
  1038ae:	e8 a5 54 00 00       	callq  108d58 <intr_handler>
  1038b3:	9d                   	popfq  
  1038b4:	41 5f                	pop    %r15
  1038b6:	41 5e                	pop    %r14
  1038b8:	41 5d                	pop    %r13
  1038ba:	41 5c                	pop    %r12
  1038bc:	41 5b                	pop    %r11
  1038be:	41 5a                	pop    %r10
  1038c0:	41 59                	pop    %r9
  1038c2:	41 58                	pop    %r8
  1038c4:	5d                   	pop    %rbp
  1038c5:	48 83 c4 08          	add    $0x8,%rsp
  1038c9:	5e                   	pop    %rsi
  1038ca:	5f                   	pop    %rdi
  1038cb:	5a                   	pop    %rdx
  1038cc:	59                   	pop    %rcx
  1038cd:	5b                   	pop    %rbx
  1038ce:	58                   	pop    %rax
  1038cf:	48 89 6c 24 38       	mov    %rbp,0x38(%rsp)
  1038d4:	48 cf                	iretq  

00000000001038d6 <intr_handler_119>:
  1038d6:	55                   	push   %rbp
  1038d7:	48 89 e5             	mov    %rsp,%rbp
  1038da:	50                   	push   %rax
  1038db:	53                   	push   %rbx
  1038dc:	51                   	push   %rcx
  1038dd:	52                   	push   %rdx
  1038de:	57                   	push   %rdi
  1038df:	56                   	push   %rsi
  1038e0:	54                   	push   %rsp
  1038e1:	55                   	push   %rbp
  1038e2:	41 50                	push   %r8
  1038e4:	41 51                	push   %r9
  1038e6:	41 52                	push   %r10
  1038e8:	41 53                	push   %r11
  1038ea:	41 54                	push   %r12
  1038ec:	41 55                	push   %r13
  1038ee:	41 56                	push   %r14
  1038f0:	41 57                	push   %r15
  1038f2:	9c                   	pushfq 
  1038f3:	bf 77 00 00 00       	mov    $0x77,%edi
  1038f8:	e8 5b 54 00 00       	callq  108d58 <intr_handler>
  1038fd:	9d                   	popfq  
  1038fe:	41 5f                	pop    %r15
  103900:	41 5e                	pop    %r14
  103902:	41 5d                	pop    %r13
  103904:	41 5c                	pop    %r12
  103906:	41 5b                	pop    %r11
  103908:	41 5a                	pop    %r10
  10390a:	41 59                	pop    %r9
  10390c:	41 58                	pop    %r8
  10390e:	5d                   	pop    %rbp
  10390f:	48 83 c4 08          	add    $0x8,%rsp
  103913:	5e                   	pop    %rsi
  103914:	5f                   	pop    %rdi
  103915:	5a                   	pop    %rdx
  103916:	59                   	pop    %rcx
  103917:	5b                   	pop    %rbx
  103918:	58                   	pop    %rax
  103919:	48 89 6c 24 38       	mov    %rbp,0x38(%rsp)
  10391e:	48 cf                	iretq  

0000000000103920 <intr_handler_120>:
  103920:	55                   	push   %rbp
  103921:	48 89 e5             	mov    %rsp,%rbp
  103924:	50                   	push   %rax
  103925:	53                   	push   %rbx
  103926:	51                   	push   %rcx
  103927:	52                   	push   %rdx
  103928:	57                   	push   %rdi
  103929:	56                   	push   %rsi
  10392a:	54                   	push   %rsp
  10392b:	55                   	push   %rbp
  10392c:	41 50                	push   %r8
  10392e:	41 51                	push   %r9
  103930:	41 52                	push   %r10
  103932:	41 53                	push   %r11
  103934:	41 54                	push   %r12
  103936:	41 55                	push   %r13
  103938:	41 56                	push   %r14
  10393a:	41 57                	push   %r15
  10393c:	9c                   	pushfq 
  10393d:	bf 78 00 00 00       	mov    $0x78,%edi
  103942:	e8 11 54 00 00       	callq  108d58 <intr_handler>
  103947:	9d                   	popfq  
  103948:	41 5f                	pop    %r15
  10394a:	41 5e                	pop    %r14
  10394c:	41 5d                	pop    %r13
  10394e:	41 5c                	pop    %r12
  103950:	41 5b                	pop    %r11
  103952:	41 5a                	pop    %r10
  103954:	41 59                	pop    %r9
  103956:	41 58                	pop    %r8
  103958:	5d                   	pop    %rbp
  103959:	48 83 c4 08          	add    $0x8,%rsp
  10395d:	5e                   	pop    %rsi
  10395e:	5f                   	pop    %rdi
  10395f:	5a                   	pop    %rdx
  103960:	59                   	pop    %rcx
  103961:	5b                   	pop    %rbx
  103962:	58                   	pop    %rax
  103963:	48 89 6c 24 38       	mov    %rbp,0x38(%rsp)
  103968:	48 cf                	iretq  

000000000010396a <intr_handler_121>:
  10396a:	55                   	push   %rbp
  10396b:	48 89 e5             	mov    %rsp,%rbp
  10396e:	50                   	push   %rax
  10396f:	53                   	push   %rbx
  103970:	51                   	push   %rcx
  103971:	52                   	push   %rdx
  103972:	57                   	push   %rdi
  103973:	56                   	push   %rsi
  103974:	54                   	push   %rsp
  103975:	55                   	push   %rbp
  103976:	41 50                	push   %r8
  103978:	41 51                	push   %r9
  10397a:	41 52                	push   %r10
  10397c:	41 53                	push   %r11
  10397e:	41 54                	push   %r12
  103980:	41 55                	push   %r13
  103982:	41 56                	push   %r14
  103984:	41 57                	push   %r15
  103986:	9c                   	pushfq 
  103987:	bf 79 00 00 00       	mov    $0x79,%edi
  10398c:	e8 c7 53 00 00       	callq  108d58 <intr_handler>
  103991:	9d                   	popfq  
  103992:	41 5f                	pop    %r15
  103994:	41 5e                	pop    %r14
  103996:	41 5d                	pop    %r13
  103998:	41 5c                	pop    %r12
  10399a:	41 5b                	pop    %r11
  10399c:	41 5a                	pop    %r10
  10399e:	41 59                	pop    %r9
  1039a0:	41 58                	pop    %r8
  1039a2:	5d                   	pop    %rbp
  1039a3:	48 83 c4 08          	add    $0x8,%rsp
  1039a7:	5e                   	pop    %rsi
  1039a8:	5f                   	pop    %rdi
  1039a9:	5a                   	pop    %rdx
  1039aa:	59                   	pop    %rcx
  1039ab:	5b                   	pop    %rbx
  1039ac:	58                   	pop    %rax
  1039ad:	48 89 6c 24 38       	mov    %rbp,0x38(%rsp)
  1039b2:	48 cf                	iretq  

00000000001039b4 <intr_handler_122>:
  1039b4:	55                   	push   %rbp
  1039b5:	48 89 e5             	mov    %rsp,%rbp
  1039b8:	50                   	push   %rax
  1039b9:	53                   	push   %rbx
  1039ba:	51                   	push   %rcx
  1039bb:	52                   	push   %rdx
  1039bc:	57                   	push   %rdi
  1039bd:	56                   	push   %rsi
  1039be:	54                   	push   %rsp
  1039bf:	55                   	push   %rbp
  1039c0:	41 50                	push   %r8
  1039c2:	41 51                	push   %r9
  1039c4:	41 52                	push   %r10
  1039c6:	41 53                	push   %r11
  1039c8:	41 54                	push   %r12
  1039ca:	41 55                	push   %r13
  1039cc:	41 56                	push   %r14
  1039ce:	41 57                	push   %r15
  1039d0:	9c                   	pushfq 
  1039d1:	bf 7a 00 00 00       	mov    $0x7a,%edi
  1039d6:	e8 7d 53 00 00       	callq  108d58 <intr_handler>
  1039db:	9d                   	popfq  
  1039dc:	41 5f                	pop    %r15
  1039de:	41 5e                	pop    %r14
  1039e0:	41 5d                	pop    %r13
  1039e2:	41 5c                	pop    %r12
  1039e4:	41 5b                	pop    %r11
  1039e6:	41 5a                	pop    %r10
  1039e8:	41 59                	pop    %r9
  1039ea:	41 58                	pop    %r8
  1039ec:	5d                   	pop    %rbp
  1039ed:	48 83 c4 08          	add    $0x8,%rsp
  1039f1:	5e                   	pop    %rsi
  1039f2:	5f                   	pop    %rdi
  1039f3:	5a                   	pop    %rdx
  1039f4:	59                   	pop    %rcx
  1039f5:	5b                   	pop    %rbx
  1039f6:	58                   	pop    %rax
  1039f7:	48 89 6c 24 38       	mov    %rbp,0x38(%rsp)
  1039fc:	48 cf                	iretq  

00000000001039fe <intr_handler_123>:
  1039fe:	55                   	push   %rbp
  1039ff:	48 89 e5             	mov    %rsp,%rbp
  103a02:	50                   	push   %rax
  103a03:	53                   	push   %rbx
  103a04:	51                   	push   %rcx
  103a05:	52                   	push   %rdx
  103a06:	57                   	push   %rdi
  103a07:	56                   	push   %rsi
  103a08:	54                   	push   %rsp
  103a09:	55                   	push   %rbp
  103a0a:	41 50                	push   %r8
  103a0c:	41 51                	push   %r9
  103a0e:	41 52                	push   %r10
  103a10:	41 53                	push   %r11
  103a12:	41 54                	push   %r12
  103a14:	41 55                	push   %r13
  103a16:	41 56                	push   %r14
  103a18:	41 57                	push   %r15
  103a1a:	9c                   	pushfq 
  103a1b:	bf 7b 00 00 00       	mov    $0x7b,%edi
  103a20:	e8 33 53 00 00       	callq  108d58 <intr_handler>
  103a25:	9d                   	popfq  
  103a26:	41 5f                	pop    %r15
  103a28:	41 5e                	pop    %r14
  103a2a:	41 5d                	pop    %r13
  103a2c:	41 5c                	pop    %r12
  103a2e:	41 5b                	pop    %r11
  103a30:	41 5a                	pop    %r10
  103a32:	41 59                	pop    %r9
  103a34:	41 58                	pop    %r8
  103a36:	5d                   	pop    %rbp
  103a37:	48 83 c4 08          	add    $0x8,%rsp
  103a3b:	5e                   	pop    %rsi
  103a3c:	5f                   	pop    %rdi
  103a3d:	5a                   	pop    %rdx
  103a3e:	59                   	pop    %rcx
  103a3f:	5b                   	pop    %rbx
  103a40:	58                   	pop    %rax
  103a41:	48 89 6c 24 38       	mov    %rbp,0x38(%rsp)
  103a46:	48 cf                	iretq  

0000000000103a48 <intr_handler_124>:
  103a48:	55                   	push   %rbp
  103a49:	48 89 e5             	mov    %rsp,%rbp
  103a4c:	50                   	push   %rax
  103a4d:	53                   	push   %rbx
  103a4e:	51                   	push   %rcx
  103a4f:	52                   	push   %rdx
  103a50:	57                   	push   %rdi
  103a51:	56                   	push   %rsi
  103a52:	54                   	push   %rsp
  103a53:	55                   	push   %rbp
  103a54:	41 50                	push   %r8
  103a56:	41 51                	push   %r9
  103a58:	41 52                	push   %r10
  103a5a:	41 53                	push   %r11
  103a5c:	41 54                	push   %r12
  103a5e:	41 55                	push   %r13
  103a60:	41 56                	push   %r14
  103a62:	41 57                	push   %r15
  103a64:	9c                   	pushfq 
  103a65:	bf 7c 00 00 00       	mov    $0x7c,%edi
  103a6a:	e8 e9 52 00 00       	callq  108d58 <intr_handler>
  103a6f:	9d                   	popfq  
  103a70:	41 5f                	pop    %r15
  103a72:	41 5e                	pop    %r14
  103a74:	41 5d                	pop    %r13
  103a76:	41 5c                	pop    %r12
  103a78:	41 5b                	pop    %r11
  103a7a:	41 5a                	pop    %r10
  103a7c:	41 59                	pop    %r9
  103a7e:	41 58                	pop    %r8
  103a80:	5d                   	pop    %rbp
  103a81:	48 83 c4 08          	add    $0x8,%rsp
  103a85:	5e                   	pop    %rsi
  103a86:	5f                   	pop    %rdi
  103a87:	5a                   	pop    %rdx
  103a88:	59                   	pop    %rcx
  103a89:	5b                   	pop    %rbx
  103a8a:	58                   	pop    %rax
  103a8b:	48 89 6c 24 38       	mov    %rbp,0x38(%rsp)
  103a90:	48 cf                	iretq  

0000000000103a92 <intr_handler_125>:
  103a92:	55                   	push   %rbp
  103a93:	48 89 e5             	mov    %rsp,%rbp
  103a96:	50                   	push   %rax
  103a97:	53                   	push   %rbx
  103a98:	51                   	push   %rcx
  103a99:	52                   	push   %rdx
  103a9a:	57                   	push   %rdi
  103a9b:	56                   	push   %rsi
  103a9c:	54                   	push   %rsp
  103a9d:	55                   	push   %rbp
  103a9e:	41 50                	push   %r8
  103aa0:	41 51                	push   %r9
  103aa2:	41 52                	push   %r10
  103aa4:	41 53                	push   %r11
  103aa6:	41 54                	push   %r12
  103aa8:	41 55                	push   %r13
  103aaa:	41 56                	push   %r14
  103aac:	41 57                	push   %r15
  103aae:	9c                   	pushfq 
  103aaf:	bf 7d 00 00 00       	mov    $0x7d,%edi
  103ab4:	e8 9f 52 00 00       	callq  108d58 <intr_handler>
  103ab9:	9d                   	popfq  
  103aba:	41 5f                	pop    %r15
  103abc:	41 5e                	pop    %r14
  103abe:	41 5d                	pop    %r13
  103ac0:	41 5c                	pop    %r12
  103ac2:	41 5b                	pop    %r11
  103ac4:	41 5a                	pop    %r10
  103ac6:	41 59                	pop    %r9
  103ac8:	41 58                	pop    %r8
  103aca:	5d                   	pop    %rbp
  103acb:	48 83 c4 08          	add    $0x8,%rsp
  103acf:	5e                   	pop    %rsi
  103ad0:	5f                   	pop    %rdi
  103ad1:	5a                   	pop    %rdx
  103ad2:	59                   	pop    %rcx
  103ad3:	5b                   	pop    %rbx
  103ad4:	58                   	pop    %rax
  103ad5:	48 89 6c 24 38       	mov    %rbp,0x38(%rsp)
  103ada:	48 cf                	iretq  

0000000000103adc <intr_handler_126>:
  103adc:	55                   	push   %rbp
  103add:	48 89 e5             	mov    %rsp,%rbp
  103ae0:	50                   	push   %rax
  103ae1:	53                   	push   %rbx
  103ae2:	51                   	push   %rcx
  103ae3:	52                   	push   %rdx
  103ae4:	57                   	push   %rdi
  103ae5:	56                   	push   %rsi
  103ae6:	54                   	push   %rsp
  103ae7:	55                   	push   %rbp
  103ae8:	41 50                	push   %r8
  103aea:	41 51                	push   %r9
  103aec:	41 52                	push   %r10
  103aee:	41 53                	push   %r11
  103af0:	41 54                	push   %r12
  103af2:	41 55                	push   %r13
  103af4:	41 56                	push   %r14
  103af6:	41 57                	push   %r15
  103af8:	9c                   	pushfq 
  103af9:	bf 7e 00 00 00       	mov    $0x7e,%edi
  103afe:	e8 55 52 00 00       	callq  108d58 <intr_handler>
  103b03:	9d                   	popfq  
  103b04:	41 5f                	pop    %r15
  103b06:	41 5e                	pop    %r14
  103b08:	41 5d                	pop    %r13
  103b0a:	41 5c                	pop    %r12
  103b0c:	41 5b                	pop    %r11
  103b0e:	41 5a                	pop    %r10
  103b10:	41 59                	pop    %r9
  103b12:	41 58                	pop    %r8
  103b14:	5d                   	pop    %rbp
  103b15:	48 83 c4 08          	add    $0x8,%rsp
  103b19:	5e                   	pop    %rsi
  103b1a:	5f                   	pop    %rdi
  103b1b:	5a                   	pop    %rdx
  103b1c:	59                   	pop    %rcx
  103b1d:	5b                   	pop    %rbx
  103b1e:	58                   	pop    %rax
  103b1f:	48 89 6c 24 38       	mov    %rbp,0x38(%rsp)
  103b24:	48 cf                	iretq  

0000000000103b26 <intr_handler_127>:
  103b26:	55                   	push   %rbp
  103b27:	48 89 e5             	mov    %rsp,%rbp
  103b2a:	50                   	push   %rax
  103b2b:	53                   	push   %rbx
  103b2c:	51                   	push   %rcx
  103b2d:	52                   	push   %rdx
  103b2e:	57                   	push   %rdi
  103b2f:	56                   	push   %rsi
  103b30:	54                   	push   %rsp
  103b31:	55                   	push   %rbp
  103b32:	41 50                	push   %r8
  103b34:	41 51                	push   %r9
  103b36:	41 52                	push   %r10
  103b38:	41 53                	push   %r11
  103b3a:	41 54                	push   %r12
  103b3c:	41 55                	push   %r13
  103b3e:	41 56                	push   %r14
  103b40:	41 57                	push   %r15
  103b42:	9c                   	pushfq 
  103b43:	bf 7f 00 00 00       	mov    $0x7f,%edi
  103b48:	e8 0b 52 00 00       	callq  108d58 <intr_handler>
  103b4d:	9d                   	popfq  
  103b4e:	41 5f                	pop    %r15
  103b50:	41 5e                	pop    %r14
  103b52:	41 5d                	pop    %r13
  103b54:	41 5c                	pop    %r12
  103b56:	41 5b                	pop    %r11
  103b58:	41 5a                	pop    %r10
  103b5a:	41 59                	pop    %r9
  103b5c:	41 58                	pop    %r8
  103b5e:	5d                   	pop    %rbp
  103b5f:	48 83 c4 08          	add    $0x8,%rsp
  103b63:	5e                   	pop    %rsi
  103b64:	5f                   	pop    %rdi
  103b65:	5a                   	pop    %rdx
  103b66:	59                   	pop    %rcx
  103b67:	5b                   	pop    %rbx
  103b68:	58                   	pop    %rax
  103b69:	48 89 6c 24 38       	mov    %rbp,0x38(%rsp)
  103b6e:	48 cf                	iretq  

0000000000103b70 <intr_handler_128>:
  103b70:	55                   	push   %rbp
  103b71:	48 89 e5             	mov    %rsp,%rbp
  103b74:	50                   	push   %rax
  103b75:	53                   	push   %rbx
  103b76:	51                   	push   %rcx
  103b77:	52                   	push   %rdx
  103b78:	57                   	push   %rdi
  103b79:	56                   	push   %rsi
  103b7a:	54                   	push   %rsp
  103b7b:	55                   	push   %rbp
  103b7c:	41 50                	push   %r8
  103b7e:	41 51                	push   %r9
  103b80:	41 52                	push   %r10
  103b82:	41 53                	push   %r11
  103b84:	41 54                	push   %r12
  103b86:	41 55                	push   %r13
  103b88:	41 56                	push   %r14
  103b8a:	41 57                	push   %r15
  103b8c:	9c                   	pushfq 
  103b8d:	bf 80 00 00 00       	mov    $0x80,%edi
  103b92:	e8 c1 51 00 00       	callq  108d58 <intr_handler>
  103b97:	9d                   	popfq  
  103b98:	41 5f                	pop    %r15
  103b9a:	41 5e                	pop    %r14
  103b9c:	41 5d                	pop    %r13
  103b9e:	41 5c                	pop    %r12
  103ba0:	41 5b                	pop    %r11
  103ba2:	41 5a                	pop    %r10
  103ba4:	41 59                	pop    %r9
  103ba6:	41 58                	pop    %r8
  103ba8:	5d                   	pop    %rbp
  103ba9:	48 83 c4 08          	add    $0x8,%rsp
  103bad:	5e                   	pop    %rsi
  103bae:	5f                   	pop    %rdi
  103baf:	5a                   	pop    %rdx
  103bb0:	59                   	pop    %rcx
  103bb1:	5b                   	pop    %rbx
  103bb2:	58                   	pop    %rax
  103bb3:	48 89 6c 24 38       	mov    %rbp,0x38(%rsp)
  103bb8:	48 cf                	iretq  

0000000000103bba <intr_handler_129>:
  103bba:	55                   	push   %rbp
  103bbb:	48 89 e5             	mov    %rsp,%rbp
  103bbe:	50                   	push   %rax
  103bbf:	53                   	push   %rbx
  103bc0:	51                   	push   %rcx
  103bc1:	52                   	push   %rdx
  103bc2:	57                   	push   %rdi
  103bc3:	56                   	push   %rsi
  103bc4:	54                   	push   %rsp
  103bc5:	55                   	push   %rbp
  103bc6:	41 50                	push   %r8
  103bc8:	41 51                	push   %r9
  103bca:	41 52                	push   %r10
  103bcc:	41 53                	push   %r11
  103bce:	41 54                	push   %r12
  103bd0:	41 55                	push   %r13
  103bd2:	41 56                	push   %r14
  103bd4:	41 57                	push   %r15
  103bd6:	9c                   	pushfq 
  103bd7:	bf 81 00 00 00       	mov    $0x81,%edi
  103bdc:	e8 77 51 00 00       	callq  108d58 <intr_handler>
  103be1:	9d                   	popfq  
  103be2:	41 5f                	pop    %r15
  103be4:	41 5e                	pop    %r14
  103be6:	41 5d                	pop    %r13
  103be8:	41 5c                	pop    %r12
  103bea:	41 5b                	pop    %r11
  103bec:	41 5a                	pop    %r10
  103bee:	41 59                	pop    %r9
  103bf0:	41 58                	pop    %r8
  103bf2:	5d                   	pop    %rbp
  103bf3:	48 83 c4 08          	add    $0x8,%rsp
  103bf7:	5e                   	pop    %rsi
  103bf8:	5f                   	pop    %rdi
  103bf9:	5a                   	pop    %rdx
  103bfa:	59                   	pop    %rcx
  103bfb:	5b                   	pop    %rbx
  103bfc:	58                   	pop    %rax
  103bfd:	48 89 6c 24 38       	mov    %rbp,0x38(%rsp)
  103c02:	48 cf                	iretq  

0000000000103c04 <intr_handler_130>:
  103c04:	55                   	push   %rbp
  103c05:	48 89 e5             	mov    %rsp,%rbp
  103c08:	50                   	push   %rax
  103c09:	53                   	push   %rbx
  103c0a:	51                   	push   %rcx
  103c0b:	52                   	push   %rdx
  103c0c:	57                   	push   %rdi
  103c0d:	56                   	push   %rsi
  103c0e:	54                   	push   %rsp
  103c0f:	55                   	push   %rbp
  103c10:	41 50                	push   %r8
  103c12:	41 51                	push   %r9
  103c14:	41 52                	push   %r10
  103c16:	41 53                	push   %r11
  103c18:	41 54                	push   %r12
  103c1a:	41 55                	push   %r13
  103c1c:	41 56                	push   %r14
  103c1e:	41 57                	push   %r15
  103c20:	9c                   	pushfq 
  103c21:	bf 82 00 00 00       	mov    $0x82,%edi
  103c26:	e8 2d 51 00 00       	callq  108d58 <intr_handler>
  103c2b:	9d                   	popfq  
  103c2c:	41 5f                	pop    %r15
  103c2e:	41 5e                	pop    %r14
  103c30:	41 5d                	pop    %r13
  103c32:	41 5c                	pop    %r12
  103c34:	41 5b                	pop    %r11
  103c36:	41 5a                	pop    %r10
  103c38:	41 59                	pop    %r9
  103c3a:	41 58                	pop    %r8
  103c3c:	5d                   	pop    %rbp
  103c3d:	48 83 c4 08          	add    $0x8,%rsp
  103c41:	5e                   	pop    %rsi
  103c42:	5f                   	pop    %rdi
  103c43:	5a                   	pop    %rdx
  103c44:	59                   	pop    %rcx
  103c45:	5b                   	pop    %rbx
  103c46:	58                   	pop    %rax
  103c47:	48 89 6c 24 38       	mov    %rbp,0x38(%rsp)
  103c4c:	48 cf                	iretq  

0000000000103c4e <intr_handler_131>:
  103c4e:	55                   	push   %rbp
  103c4f:	48 89 e5             	mov    %rsp,%rbp
  103c52:	50                   	push   %rax
  103c53:	53                   	push   %rbx
  103c54:	51                   	push   %rcx
  103c55:	52                   	push   %rdx
  103c56:	57                   	push   %rdi
  103c57:	56                   	push   %rsi
  103c58:	54                   	push   %rsp
  103c59:	55                   	push   %rbp
  103c5a:	41 50                	push   %r8
  103c5c:	41 51                	push   %r9
  103c5e:	41 52                	push   %r10
  103c60:	41 53                	push   %r11
  103c62:	41 54                	push   %r12
  103c64:	41 55                	push   %r13
  103c66:	41 56                	push   %r14
  103c68:	41 57                	push   %r15
  103c6a:	9c                   	pushfq 
  103c6b:	bf 83 00 00 00       	mov    $0x83,%edi
  103c70:	e8 e3 50 00 00       	callq  108d58 <intr_handler>
  103c75:	9d                   	popfq  
  103c76:	41 5f                	pop    %r15
  103c78:	41 5e                	pop    %r14
  103c7a:	41 5d                	pop    %r13
  103c7c:	41 5c                	pop    %r12
  103c7e:	41 5b                	pop    %r11
  103c80:	41 5a                	pop    %r10
  103c82:	41 59                	pop    %r9
  103c84:	41 58                	pop    %r8
  103c86:	5d                   	pop    %rbp
  103c87:	48 83 c4 08          	add    $0x8,%rsp
  103c8b:	5e                   	pop    %rsi
  103c8c:	5f                   	pop    %rdi
  103c8d:	5a                   	pop    %rdx
  103c8e:	59                   	pop    %rcx
  103c8f:	5b                   	pop    %rbx
  103c90:	58                   	pop    %rax
  103c91:	48 89 6c 24 38       	mov    %rbp,0x38(%rsp)
  103c96:	48 cf                	iretq  

0000000000103c98 <intr_handler_132>:
  103c98:	55                   	push   %rbp
  103c99:	48 89 e5             	mov    %rsp,%rbp
  103c9c:	50                   	push   %rax
  103c9d:	53                   	push   %rbx
  103c9e:	51                   	push   %rcx
  103c9f:	52                   	push   %rdx
  103ca0:	57                   	push   %rdi
  103ca1:	56                   	push   %rsi
  103ca2:	54                   	push   %rsp
  103ca3:	55                   	push   %rbp
  103ca4:	41 50                	push   %r8
  103ca6:	41 51                	push   %r9
  103ca8:	41 52                	push   %r10
  103caa:	41 53                	push   %r11
  103cac:	41 54                	push   %r12
  103cae:	41 55                	push   %r13
  103cb0:	41 56                	push   %r14
  103cb2:	41 57                	push   %r15
  103cb4:	9c                   	pushfq 
  103cb5:	bf 84 00 00 00       	mov    $0x84,%edi
  103cba:	e8 99 50 00 00       	callq  108d58 <intr_handler>
  103cbf:	9d                   	popfq  
  103cc0:	41 5f                	pop    %r15
  103cc2:	41 5e                	pop    %r14
  103cc4:	41 5d                	pop    %r13
  103cc6:	41 5c                	pop    %r12
  103cc8:	41 5b                	pop    %r11
  103cca:	41 5a                	pop    %r10
  103ccc:	41 59                	pop    %r9
  103cce:	41 58                	pop    %r8
  103cd0:	5d                   	pop    %rbp
  103cd1:	48 83 c4 08          	add    $0x8,%rsp
  103cd5:	5e                   	pop    %rsi
  103cd6:	5f                   	pop    %rdi
  103cd7:	5a                   	pop    %rdx
  103cd8:	59                   	pop    %rcx
  103cd9:	5b                   	pop    %rbx
  103cda:	58                   	pop    %rax
  103cdb:	48 89 6c 24 38       	mov    %rbp,0x38(%rsp)
  103ce0:	48 cf                	iretq  

0000000000103ce2 <intr_handler_133>:
  103ce2:	55                   	push   %rbp
  103ce3:	48 89 e5             	mov    %rsp,%rbp
  103ce6:	50                   	push   %rax
  103ce7:	53                   	push   %rbx
  103ce8:	51                   	push   %rcx
  103ce9:	52                   	push   %rdx
  103cea:	57                   	push   %rdi
  103ceb:	56                   	push   %rsi
  103cec:	54                   	push   %rsp
  103ced:	55                   	push   %rbp
  103cee:	41 50                	push   %r8
  103cf0:	41 51                	push   %r9
  103cf2:	41 52                	push   %r10
  103cf4:	41 53                	push   %r11
  103cf6:	41 54                	push   %r12
  103cf8:	41 55                	push   %r13
  103cfa:	41 56                	push   %r14
  103cfc:	41 57                	push   %r15
  103cfe:	9c                   	pushfq 
  103cff:	bf 85 00 00 00       	mov    $0x85,%edi
  103d04:	e8 4f 50 00 00       	callq  108d58 <intr_handler>
  103d09:	9d                   	popfq  
  103d0a:	41 5f                	pop    %r15
  103d0c:	41 5e                	pop    %r14
  103d0e:	41 5d                	pop    %r13
  103d10:	41 5c                	pop    %r12
  103d12:	41 5b                	pop    %r11
  103d14:	41 5a                	pop    %r10
  103d16:	41 59                	pop    %r9
  103d18:	41 58                	pop    %r8
  103d1a:	5d                   	pop    %rbp
  103d1b:	48 83 c4 08          	add    $0x8,%rsp
